Archive member included because of file (symbol)

/Applications/microchip/mplabc32/v2.00/bin/../lib/gcc/pic32mx/4.5.1/../../../../pic32mx/lib/libc.a(strlen.o)
                              build/default/production/_ext/1472/PicasoSGC.o (strlen)
/Applications/microchip/mplabc32/v2.00/bin/../lib/gcc/pic32mx/4.5.1/../../../../pic32mx/lib/libc.a(general-exception.o)
                              /Applications/microchip/mplabc32/v2.00/bin/../lib/gcc/pic32mx/4.5.1/../../../../pic32mx/lib/crt0.o (_general_exception_context)
/Applications/microchip/mplabc32/v2.00/bin/../lib/gcc/pic32mx/4.5.1/../../../../pic32mx/lib/libc.a(ctypef.o)
                              build/default/production/_ext/1472/Uart-Gruppio.o (toupper)
/Applications/microchip/mplabc32/v2.00/bin/../lib/gcc/pic32mx/4.5.1/../../../../pic32mx/lib/libc.a(sprintf_fF.eo)
                              build/default/production/_ext/1472/App.o (_sprintf_fF)
/Applications/microchip/mplabc32/v2.00/bin/../lib/gcc/pic32mx/4.5.1/../../../../pic32mx/lib/libc.a(default-general-exception-handler.o)
                              /Applications/microchip/mplabc32/v2.00/bin/../lib/gcc/pic32mx/4.5.1/../../../../pic32mx/lib/libc.a(general-exception.o) (_general_exception_handler)
/Applications/microchip/mplabc32/v2.00/bin/../lib/gcc/pic32mx/4.5.1/../../../../pic32mx/lib/libc.a(default-bootstrap-exception-handler.o)
                              /Applications/microchip/mplabc32/v2.00/bin/../lib/gcc/pic32mx/4.5.1/../../../../pic32mx/lib/crt0.o (_bootstrap_exception_handler)
/Applications/microchip/mplabc32/v2.00/bin/../lib/gcc/pic32mx/4.5.1/../../../../pic32mx/lib/libc.a(default-on-reset.o)
                              /Applications/microchip/mplabc32/v2.00/bin/../lib/gcc/pic32mx/4.5.1/../../../../pic32mx/lib/crt0.o (_on_reset)
/Applications/microchip/mplabc32/v2.00/bin/../lib/gcc/pic32mx/4.5.1/../../../../pic32mx/lib/libc.a(default-on-bootstrap.o)
                              /Applications/microchip/mplabc32/v2.00/bin/../lib/gcc/pic32mx/4.5.1/../../../../pic32mx/lib/crt0.o (_on_bootstrap)
/Applications/microchip/mplabc32/v2.00/bin/../lib/gcc/pic32mx/4.5.1/../../../../pic32mx/lib/libc.a(default-nmi-handler.o)
                              /Applications/microchip/mplabc32/v2.00/bin/../lib/gcc/pic32mx/4.5.1/../../../../pic32mx/lib/crt0.o (_nmi_handler)
/Applications/microchip/mplabc32/v2.00/bin/../lib/gcc/pic32mx/4.5.1/../../../../pic32mx/lib/libc.a(ctype.o)
                              /Applications/microchip/mplabc32/v2.00/bin/../lib/gcc/pic32mx/4.5.1/../../../../pic32mx/lib/libc.a(ctypef.o) (_ctype)
/Applications/microchip/mplabc32/v2.00/bin/../lib/gcc/pic32mx/4.5.1/../../../../pic32mx/lib/libc.a(doprnt_fF.eo)
                              /Applications/microchip/mplabc32/v2.00/bin/../lib/gcc/pic32mx/4.5.1/../../../../pic32mx/lib/libc.a(sprintf_fF.eo) (_vfprintf_fF)
/Applications/microchip/mplabc32/v2.00/bin/../lib/gcc/pic32mx/4.5.1/../../../../pic32mx/lib/libc.a(_fputc_simple.o)
                              /Applications/microchip/mplabc32/v2.00/bin/../lib/gcc/pic32mx/4.5.1/../../../../pic32mx/lib/libc.a(doprnt_fF.eo) (fputc)
/Applications/microchip/mplabc32/v2.00/bin/../lib/gcc/pic32mx/4.5.1/../../../../pic32mx/lib/libc.a(powers.o)
                              /Applications/microchip/mplabc32/v2.00/bin/../lib/gcc/pic32mx/4.5.1/../../../../pic32mx/lib/libc.a(doprnt_fF.eo) (_powers_f)
/Applications/microchip/mplabc32/v2.00/bin/../lib/gcc/pic32mx/4.5.1/../../../../pic32mx/lib/libc.a(write.o)
                              /Applications/microchip/mplabc32/v2.00/bin/../lib/gcc/pic32mx/4.5.1/../../../../pic32mx/lib/libc.a(_fputc_simple.o) (write)
/Applications/microchip/mplabc32/v2.00/bin/../lib/gcc/pic32mx/4.5.1/../../../../pic32mx/lib/libc.a(_iob.o)
                              /Applications/microchip/mplabc32/v2.00/bin/../lib/gcc/pic32mx/4.5.1/../../../../pic32mx/lib/libc.a(_fputc_simple.o) (_outdone)
/Applications/microchip/mplabc32/v2.00/bin/../lib/gcc/pic32mx/4.5.1/../../../../pic32mx/lib/libc.a(_flsbuf_simple.o)
                              /Applications/microchip/mplabc32/v2.00/bin/../lib/gcc/pic32mx/4.5.1/../../../../pic32mx/lib/libc.a(_fputc_simple.o) (_flsbuf)
/Applications/microchip/mplabc32/v2.00/bin/../lib/gcc/pic32mx/4.5.1/../../../../pic32mx/lib/libc.a(_mon_putc.o)
                              /Applications/microchip/mplabc32/v2.00/bin/../lib/gcc/pic32mx/4.5.1/../../../../pic32mx/lib/libc.a(write.o) (_mon_putc)
/Applications/microchip/mplabc32/v2.00/bin/../lib/gcc/pic32mx/4.5.1/../../../../pic32mx/lib/libc.a(c32_uart.o)
                              /Applications/microchip/mplabc32/v2.00/bin/../lib/gcc/pic32mx/4.5.1/../../../../pic32mx/lib/libc.a(_mon_putc.o) (__C32_UART)
/Applications/microchip/mplabc32/v2.00/bin/../lib/gcc/pic32mx/4.5.1/../../../../pic32mx/lib/libm.a(w_asinf.o)
                              build/default/production/_ext/1472/Adxl345.o (asinf)
/Applications/microchip/mplabc32/v2.00/bin/../lib/gcc/pic32mx/4.5.1/../../../../pic32mx/lib/libm.a(fpmod32.o)
                              /Applications/microchip/mplabc32/v2.00/bin/../lib/gcc/pic32mx/4.5.1/../../../../pic32mx/lib/libc.a(doprnt_fF.eo) (frexpf)
/Applications/microchip/mplabc32/v2.00/bin/../lib/gcc/pic32mx/4.5.1/../../../../pic32mx/lib/libm.a(dp32.o)
                              /Applications/microchip/mplabc32/v2.00/bin/../lib/gcc/pic32mx/4.5.1/../../../../pic32mx/lib/libm.a(w_asinf.o) (dptofp)
/Applications/microchip/mplabc32/v2.00/bin/../lib/gcc/pic32mx/4.5.1/../../../../pic32mx/lib/libm.a(w_sqrtf.o)
                              build/default/production/_ext/1472/Adxl345.o (sqrtf)
/Applications/microchip/mplabc32/v2.00/bin/../lib/gcc/pic32mx/4.5.1/../../../../pic32mx/lib/libm.a(fp32.o)
                              build/default/production/_ext/1472/Adxl345.o (fpsub)
/Applications/microchip/mplabc32/v2.00/bin/../lib/gcc/pic32mx/4.5.1/../../../../pic32mx/lib/libm.a(s_lib_ver.o)
                              /Applications/microchip/mplabc32/v2.00/bin/../lib/gcc/pic32mx/4.5.1/../../../../pic32mx/lib/libm.a(w_asinf.o) (math_errhandling)
/Applications/microchip/mplabc32/v2.00/bin/../lib/gcc/pic32mx/4.5.1/../../../../pic32mx/lib/libm.a(fparc32.o)
                              /Applications/microchip/mplabc32/v2.00/bin/../lib/gcc/pic32mx/4.5.1/../../../../pic32mx/lib/libm.a(w_asinf.o) (__mchp_asinf)
/Applications/microchip/mplabc32/v2.00/bin/../lib/gcc/pic32mx/4.5.1/../../../../pic32mx/lib/libm.a(fpsqrt32.o)
                              /Applications/microchip/mplabc32/v2.00/bin/../lib/gcc/pic32mx/4.5.1/../../../../pic32mx/lib/libm.a(fparc32.o) (fpexsqrt)
/Applications/microchip/mplabc32/v2.00/bin/../lib/gcc/pic32mx/4.5.1/../../../../pic32mx/lib/libe.a(_floatdisf.o)
                              /Applications/microchip/mplabc32/v2.00/bin/../lib/gcc/pic32mx/4.5.1/../../../../pic32mx/lib/libc.a(doprnt_fF.eo) (__floatdisf)
/Applications/microchip/mplabc32/v2.00/bin/../lib/gcc/pic32mx/4.5.1/../../../../pic32mx/lib/libmchp_peripheral_32MX795F512L.a(int_configure_system_lib.o)
                              build/default/production/_ext/1472/Pic32mx7.o (INTConfigureSystem)
/Applications/microchip/mplabc32/v2.00/bin/../lib/gcc/pic32mx/4.5.1/../../../../pic32mx/lib/libmchp_peripheral_32MX795F512L.a(int_enable_interrupts_lib.o)
                              build/default/production/_ext/1472/Pic32mx7.o (INTEnableInterrupts)
/Applications/microchip/mplabc32/v2.00/bin/../lib/gcc/pic32mx/4.5.1/../../../../pic32mx/lib/libmchp_peripheral_32MX795F512L.a(int_enable_mv_int_lib.o)
                              build/default/production/_ext/1472/IGruppioV2.o (INTEnableSystemMultiVectoredInt)
/Applications/microchip/mplabc32/v2.00/bin/../lib/gcc/pic32mx/4.5.1/../../../../pic32mx/lib/libmchp_peripheral_32MX795F512L.a(int_tbl_lib.o)
                              build/default/production/_ext/1472/Pic32mx7.o (INTClearFlag)
/Applications/microchip/mplabc32/v2.00/bin/../lib/gcc/pic32mx/4.5.1/../../../../pic32mx/lib/libmchp_peripheral_32MX795F512L.a(I2CAcknowledgeByte.o)
                              build/default/production/_ext/1472/I2C - Gruppio.o (I2CAcknowledgeByte)
/Applications/microchip/mplabc32/v2.00/bin/../lib/gcc/pic32mx/4.5.1/../../../../pic32mx/lib/libmchp_peripheral_32MX795F512L.a(I2CByteWasAcknowledged.o)
                              build/default/production/_ext/1472/I2C - Gruppio.o (I2CByteWasAcknowledged)
/Applications/microchip/mplabc32/v2.00/bin/../lib/gcc/pic32mx/4.5.1/../../../../pic32mx/lib/libmchp_peripheral_32MX795F512L.a(I2CGetByte.o)
                              build/default/production/_ext/1472/I2C - Gruppio.o (I2CGetByte)
/Applications/microchip/mplabc32/v2.00/bin/../lib/gcc/pic32mx/4.5.1/../../../../pic32mx/lib/libmchp_peripheral_32MX795F512L.a(I2CReceiverEnable.o)
                              build/default/production/_ext/1472/I2C - Gruppio.o (I2CReceiverEnable)
/Applications/microchip/mplabc32/v2.00/bin/../lib/gcc/pic32mx/4.5.1/../../../../pic32mx/lib/libmchp_peripheral_32MX795F512L.a(I2CRepeatStart.o)
                              build/default/production/_ext/1472/I2C - Gruppio.o (I2CRepeatStart)
/Applications/microchip/mplabc32/v2.00/bin/../lib/gcc/pic32mx/4.5.1/../../../../pic32mx/lib/libmchp_peripheral_32MX795F512L.a(I2CSendByte.o)
                              build/default/production/_ext/1472/I2C - Gruppio.o (I2CSendByte)
/Applications/microchip/mplabc32/v2.00/bin/../lib/gcc/pic32mx/4.5.1/../../../../pic32mx/lib/libmchp_peripheral_32MX795F512L.a(I2CStart.o)
                              build/default/production/_ext/1472/I2C - Gruppio.o (I2CStart)
/Applications/microchip/mplabc32/v2.00/bin/../lib/gcc/pic32mx/4.5.1/../../../../pic32mx/lib/libmchp_peripheral_32MX795F512L.a(I2CStop.o)
                              build/default/production/_ext/1472/I2C - Gruppio.o (I2CStop)
/Applications/microchip/mplabc32/v2.00/bin/../lib/gcc/pic32mx/4.5.1/../../../../pic32mx/lib/libmchp_peripheral_32MX795F512L.a(I2CTransmissionHasCompleted.o)
                              build/default/production/_ext/1472/I2C - Gruppio.o (I2CTransmissionHasCompleted)
/Applications/microchip/mplabc32/v2.00/bin/../lib/gcc/pic32mx/4.5.1/../../../../pic32mx/lib/libmchp_peripheral_32MX795F512L.a(I2CPrivate.o)
                              /Applications/microchip/mplabc32/v2.00/bin/../lib/gcc/pic32mx/4.5.1/../../../../pic32mx/lib/libmchp_peripheral_32MX795F512L.a(I2CAcknowledgeByte.o) (i2cBase)
/Applications/microchip/mplabc32/v2.00/bin/../lib/gcc/pic32mx/4.5.1/../../../../pic32mx/lib/libc.a(errno.o)
                              /Applications/microchip/mplabc32/v2.00/bin/../lib/gcc/pic32mx/4.5.1/../../../../pic32mx/lib/libm.a(w_asinf.o) (errno)
/Applications/microchip/mplabc32/v2.00/bin/../lib/gcc/pic32mx/4.5.1/libgcc.a(_floatundisf.o)
                              /Applications/microchip/mplabc32/v2.00/bin/../lib/gcc/pic32mx/4.5.1/../../../../pic32mx/lib/libc.a(doprnt_fF.eo) (__floatundisf)
/Applications/microchip/mplabc32/v2.00/bin/../lib/gcc/pic32mx/4.5.1/libgcc.a(_udivdi3.o)
                              /Applications/microchip/mplabc32/v2.00/bin/../lib/gcc/pic32mx/4.5.1/../../../../pic32mx/lib/libc.a(doprnt_fF.eo) (__udivdi3)
/Applications/microchip/mplabc32/v2.00/bin/../lib/gcc/pic32mx/4.5.1/libgcc.a(_umoddi3.o)
                              /Applications/microchip/mplabc32/v2.00/bin/../lib/gcc/pic32mx/4.5.1/../../../../pic32mx/lib/libc.a(doprnt_fF.eo) (__umoddi3)
/Applications/microchip/mplabc32/v2.00/bin/../lib/gcc/pic32mx/4.5.1/libgcc.a(floatunsisf.o)
                              /Applications/microchip/mplabc32/v2.00/bin/../lib/gcc/pic32mx/4.5.1/libgcc.a(_floatundisf.o) (__floatunsisf)

Allocating common symbols
Common symbol       size              file

RxBuffer            0x100             build/default/production/_ext/1472/Pic32mx7.o
Pag                 0x4               build/default/production/_ext/1472/Pic32mx7.o
NApp                0x4               build/default/production/_ext/1472/Pic32mx7.o
WriteCol            0x4               build/default/production/_ext/1472/Pic32mx7.o
BackgroundCol       0x4               build/default/production/_ext/1472/Pic32mx7.o
GPSData             0x100             build/default/production/_ext/1472/Pic32mx7.o

Microchip PIC32 Memory-Usage Report

kseg0 Program-Memory Usage
section                    address  length [bytes]      (dec)  Description
-------                 ----------  -------------------------  -----------
.rodata                 0x9d000000          0x9f8        2552  Read-only const 
.text                   0x9d000a00         0x6b18       27416  App's exec code 
.text._vfprintf_fF      0x9d007518         0x107c        4220   
.text                   0x9d008594         0x558c       21900  App's exec code 
.dinit                  0x9d00db20          0x29c         668   
.text                   0x9d00ddbc          0x288         648  App's exec code 
.text.scale             0x9d00e044          0x260         608   
.text.__floatdisf       0x9d00e2a4          0x214         532   
.text                   0x9d00e4b8          0x350         848  App's exec code 
.text.fputc             0x9d00e808          0x164         356   
.rodata                 0x9d00e96c          0x140         320  Read-only const 
.text._flsbuf           0x9d00eaac          0x12c         300   
.rodata                 0x9d00ebd8          0x124         292  Read-only const 
.text                   0x9d00ecfc          0x1b8         440  App's exec code 
.text.general_exception 0x9d00eeb4           0xd0         208   
.text._mon_putc         0x9d00ef84           0xa8         168   
.text.write             0x9d00f02c           0x88         136   
.text.asinf             0x9d00f0b4           0x78         120   
.text._sprintf_fF       0x9d00f12c           0x68         104   
.text.INTEnable         0x9d00f194           0x58          88   
.text.sqrtf             0x9d00f1ec           0x4c          76   
.text.I2CAcknowledgeByt 0x9d00f238           0x4c          76   
.text                   0x9d00f284           0x4c          76  App's exec code 
.text.INTSetVectorPrior 0x9d00f2d0           0x3c          60   
.text.INTSetVectorSubPr 0x9d00f30c           0x3c          60   
.rodata                 0x9d00f348           0x38          56  Read-only const 
.text.I2CReceiverEnable 0x9d00f380           0x38          56   
.text.INTEnableSystemMu 0x9d00f3b8           0x34          52   
.text.I2CSendByte       0x9d00f3ec           0x34          52   
.text.I2CStart          0x9d00f420           0x34          52   
.text.INTConfigureSyste 0x9d00f454           0x30          48   
.text.INTGetVectorPrior 0x9d00f484           0x30          48   
.text.INTGetVectorSubPr 0x9d00f4b4           0x30          48   
.text.I2CRepeatStart    0x9d00f4e4           0x30          48   
.rodata                 0x9d00f514           0x2c          44  Read-only const 
.text.INTClearFlag      0x9d00f540           0x2c          44   
.text.INTSetFlag        0x9d00f56c           0x2c          44   
.text.INTGetFlag        0x9d00f598           0x2c          44   
.text.INTGetEnable      0x9d00f5c4           0x2c          44   
.rodata                 0x9d00f5f0           0x24          36  Read-only const 
.text.tolower           0x9d00f614           0x24          36   
.text.toupper           0x9d00f638           0x24          36   
.text.I2CByteWasAcknowl 0x9d00f65c           0x24          36   
.text.I2CStop           0x9d00f680           0x24          36   
.text.I2CTransmissionHa 0x9d00f6a4           0x24          36   
.text.I2CGetByte        0x9d00f6c8           0x20          32   
.text.isalnum           0x9d00f6e8           0x18          24   
.text.isalpha           0x9d00f700           0x18          24   
.text.iscntrl           0x9d00f718           0x18          24   
.text.isdigit           0x9d00f730           0x18          24   
.text.isgraph           0x9d00f748           0x18          24   
.text.islower           0x9d00f760           0x18          24   
.text.isprint           0x9d00f778           0x18          24   
.text.ispunct           0x9d00f790           0x18          24   
.text.isspace           0x9d00f7a8           0x18          24   
.text.isupper           0x9d00f7c0           0x18          24   
.text.isxdigit          0x9d00f7d8           0x18          24   
.text                   0x9d00f7f0           0x28          40  App's exec code 
.rodata                 0x9d00f818           0x10          16  Read-only const 
.text._general_exceptio 0x9d00f828            0xc          12   
.text._bootstrap_except 0x9d00f834            0xc          12   
.rodata                 0x9d00f840            0x8           8  Read-only const 
.text.isascii           0x9d00f848            0x8           8   
.text.toascii           0x9d00f850            0x8           8   
.text._tolower          0x9d00f858            0x8           8   
.text._toupper          0x9d00f860            0x8           8   
.text._on_reset         0x9d00f868            0x8           8   
.text._on_bootstrap     0x9d00f870            0x8           8   
.rodata                 0x9d00f878            0x8           8  Read-only const 
.text.INTEnableInterrup 0x9d00f880            0x8           8   
.rodata                 0x9d00f888            0xc          12  Read-only const 
      Total kseg0_program_mem used  :      0xf88c       63628  12.1% of 0x80000

kseg0 Boot-Memory Usage
section                    address  length [bytes]      (dec)  Description
-------                 ----------  -------------------------  -----------
         Total kseg0_boot_mem used  :           0           0  <1% of 0x970

Exception-Memory Usage 
section                    address  length [bytes]      (dec)  Description
-------                 ----------  -------------------------  -----------
.app_excpt              0x9fc01180           0x10          16  General-Exception 
.vector_7               0x9fc012e0            0x8           8  Interrupt Vector 7 
.vector_32              0x9fc01600            0x8           8  Interrupt Vector 32 
          Total exception_mem used  :        0x20          32  0.8% of 0x1000

kseg1 Boot-Memory Usage
section                    address  length [bytes]      (dec)  Description
-------                 ----------  -------------------------  -----------
.reset                  0xbfc00000          0x1b8         440  Reset handler 
.bev_excpt              0xbfc00380           0x10          16  BEV-Exception 
         Total kseg1_boot_mem used  :       0x1c8         456  39.0% of 0x490
        --------------------------------------------------------------------------
         Total Program Memory used  :      0xfa74       64116  12.1% of 0x81e00
        --------------------------------------------------------------------------


kseg1 Data-Memory Usage
section                    address  length [bytes]      (dec)  Description
-------                 ----------  -------------------------  -----------
.eh_frame               0xa0000000           0x30          48   
.sdata                  0xa0000030            0xc          12  Small init data 
.sbss                   0xa000003c           0x24          36  Small uninit data 
.bss                    0xa0000060          0x200         512  Uninitialized data 
.data                   0xa0000270          0x100         256  Initialized data 
.data._iob              0xa0000370           0xa0         160   
.bss._sibuf             0xa0000410           0x20          32   
.bss._sobuf             0xa0000430           0x20          32   
.data.math_errhandling_ 0xa0000450            0x4           4   
         Total kseg1_data_mem used  :       0x444        1092  0.8% of 0x20000
        --------------------------------------------------------------------------
            Total Data Memory used  :       0x444        1092  0.8% of 0x20000
        --------------------------------------------------------------------------


Dynamic Data-Memory Reservation
section                    address  length [bytes]      (dec)  Description
-------                 ----------  -------------------------  -----------
heap                    0xa0000458              0           0  Reserved for heap 
stack                   0xa0000470        0x1fb80      129920  Reserved for stack 

        --------------------------------------------------------------------------

Discarded input sections

 .reginfo       0x00000000       0x18 /Applications/microchip/mplabc32/v2.00/bin/../lib/gcc/pic32mx/4.5.1/../../../../pic32mx/lib/crt0.o
 .pdr           0x00000000       0xa0 /Applications/microchip/mplabc32/v2.00/bin/../lib/gcc/pic32mx/4.5.1/../../../../pic32mx/lib/crt0.o
 .reginfo       0x00000000       0x18 build/default/production/_ext/1472/Adc-Gruppio.o
 .pdr           0x00000000       0x40 build/default/production/_ext/1472/Adc-Gruppio.o
 .reginfo       0x00000000       0x18 build/default/production/_ext/1472/Adxl345.o
 .pdr           0x00000000      0x160 build/default/production/_ext/1472/Adxl345.o
 .reginfo       0x00000000       0x18 build/default/production/_ext/1472/App.o
 .pdr           0x00000000       0xa0 build/default/production/_ext/1472/App.o
 .reginfo       0x00000000       0x18 build/default/production/_ext/1472/Filter.o
 .pdr           0x00000000        0x0 build/default/production/_ext/1472/Filter.o
 .reginfo       0x00000000       0x18 build/default/production/_ext/1472/Grapichs.o
 .pdr           0x00000000       0xa0 build/default/production/_ext/1472/Grapichs.o
 .reginfo       0x00000000       0x18 build/default/production/_ext/1472/HMC6352.o
 .pdr           0x00000000       0x80 build/default/production/_ext/1472/HMC6352.o
 .reginfo       0x00000000       0x18 build/default/production/_ext/1472/I2C - Gruppio.o
 .pdr           0x00000000       0xe0 build/default/production/_ext/1472/I2C - Gruppio.o
 .reginfo       0x00000000       0x18 build/default/production/_ext/1472/IGruppioV2.o
 .pdr           0x00000000       0xa0 build/default/production/_ext/1472/IGruppioV2.o
 .reginfo       0x00000000       0x18 build/default/production/_ext/1472/ITG3200.o
 .pdr           0x00000000      0x100 build/default/production/_ext/1472/ITG3200.o
 .reginfo       0x00000000       0x18 build/default/production/_ext/1472/MLX90614.o
 .pdr           0x00000000       0x20 build/default/production/_ext/1472/MLX90614.o
 .reginfo       0x00000000       0x18 build/default/production/_ext/1472/Pic32mx7.o
 .pdr           0x00000000      0x160 build/default/production/_ext/1472/Pic32mx7.o
 .reginfo       0x00000000       0x18 build/default/production/_ext/1472/PicasoSGC.o
 .pdr           0x00000000      0x520 build/default/production/_ext/1472/PicasoSGC.o
 .reginfo       0x00000000       0x18 build/default/production/_ext/1472/Timer-PWM-Gruppio.o
 .pdr           0x00000000       0x20 build/default/production/_ext/1472/Timer-PWM-Gruppio.o
 .reginfo       0x00000000       0x18 build/default/production/_ext/1472/Uart-Gruppio.o
 .pdr           0x00000000      0x340 build/default/production/_ext/1472/Uart-Gruppio.o
 .reginfo       0x00000000       0x18 /Applications/microchip/mplabc32/v2.00/bin/../lib/gcc/pic32mx/4.5.1/../../../../pic32mx/lib/libc.a(strlen.o)
 .pdr           0x00000000       0x20 /Applications/microchip/mplabc32/v2.00/bin/../lib/gcc/pic32mx/4.5.1/../../../../pic32mx/lib/libc.a(strlen.o)
 .reginfo       0x00000000       0x18 /Applications/microchip/mplabc32/v2.00/bin/../lib/gcc/pic32mx/4.5.1/../../../../pic32mx/lib/libc.a(general-exception.o)
 .pdr           0x00000000       0x20 /Applications/microchip/mplabc32/v2.00/bin/../lib/gcc/pic32mx/4.5.1/../../../../pic32mx/lib/libc.a(general-exception.o)
 .reginfo       0x00000000       0x18 /Applications/microchip/mplabc32/v2.00/bin/../lib/gcc/pic32mx/4.5.1/../../../../pic32mx/lib/libc.a(ctypef.o)
 .pdr           0x00000000      0x220 /Applications/microchip/mplabc32/v2.00/bin/../lib/gcc/pic32mx/4.5.1/../../../../pic32mx/lib/libc.a(ctypef.o)
 .reginfo       0x00000000       0x18 /Applications/microchip/mplabc32/v2.00/bin/../lib/gcc/pic32mx/4.5.1/../../../../pic32mx/lib/libc.a(sprintf_fF.eo)
 .pdr           0x00000000       0x20 /Applications/microchip/mplabc32/v2.00/bin/../lib/gcc/pic32mx/4.5.1/../../../../pic32mx/lib/libc.a(sprintf_fF.eo)
 .reginfo       0x00000000       0x18 /Applications/microchip/mplabc32/v2.00/bin/../lib/gcc/pic32mx/4.5.1/../../../../pic32mx/lib/libc.a(default-general-exception-handler.o)
 .pdr           0x00000000       0x20 /Applications/microchip/mplabc32/v2.00/bin/../lib/gcc/pic32mx/4.5.1/../../../../pic32mx/lib/libc.a(default-general-exception-handler.o)
 .reginfo       0x00000000       0x18 /Applications/microchip/mplabc32/v2.00/bin/../lib/gcc/pic32mx/4.5.1/../../../../pic32mx/lib/libc.a(default-bootstrap-exception-handler.o)
 .pdr           0x00000000       0x20 /Applications/microchip/mplabc32/v2.00/bin/../lib/gcc/pic32mx/4.5.1/../../../../pic32mx/lib/libc.a(default-bootstrap-exception-handler.o)
 .reginfo       0x00000000       0x18 /Applications/microchip/mplabc32/v2.00/bin/../lib/gcc/pic32mx/4.5.1/../../../../pic32mx/lib/libc.a(default-on-reset.o)
 .pdr           0x00000000       0x20 /Applications/microchip/mplabc32/v2.00/bin/../lib/gcc/pic32mx/4.5.1/../../../../pic32mx/lib/libc.a(default-on-reset.o)
 .reginfo       0x00000000       0x18 /Applications/microchip/mplabc32/v2.00/bin/../lib/gcc/pic32mx/4.5.1/../../../../pic32mx/lib/libc.a(default-on-bootstrap.o)
 .pdr           0x00000000       0x20 /Applications/microchip/mplabc32/v2.00/bin/../lib/gcc/pic32mx/4.5.1/../../../../pic32mx/lib/libc.a(default-on-bootstrap.o)
 .reginfo       0x00000000       0x18 /Applications/microchip/mplabc32/v2.00/bin/../lib/gcc/pic32mx/4.5.1/../../../../pic32mx/lib/libc.a(default-nmi-handler.o)
 .pdr           0x00000000       0x20 /Applications/microchip/mplabc32/v2.00/bin/../lib/gcc/pic32mx/4.5.1/../../../../pic32mx/lib/libc.a(default-nmi-handler.o)
 .reginfo       0x00000000       0x18 /Applications/microchip/mplabc32/v2.00/bin/../lib/gcc/pic32mx/4.5.1/../../../../pic32mx/lib/libc.a(ctype.o)
 .pdr           0x00000000        0x0 /Applications/microchip/mplabc32/v2.00/bin/../lib/gcc/pic32mx/4.5.1/../../../../pic32mx/lib/libc.a(ctype.o)
 .reginfo       0x00000000       0x18 /Applications/microchip/mplabc32/v2.00/bin/../lib/gcc/pic32mx/4.5.1/../../../../pic32mx/lib/libc.a(doprnt_fF.eo)
 .pdr           0x00000000       0x40 /Applications/microchip/mplabc32/v2.00/bin/../lib/gcc/pic32mx/4.5.1/../../../../pic32mx/lib/libc.a(doprnt_fF.eo)
 .reginfo       0x00000000       0x18 /Applications/microchip/mplabc32/v2.00/bin/../lib/gcc/pic32mx/4.5.1/../../../../pic32mx/lib/libc.a(_fputc_simple.o)
 .pdr           0x00000000       0x20 /Applications/microchip/mplabc32/v2.00/bin/../lib/gcc/pic32mx/4.5.1/../../../../pic32mx/lib/libc.a(_fputc_simple.o)
 .reginfo       0x00000000       0x18 /Applications/microchip/mplabc32/v2.00/bin/../lib/gcc/pic32mx/4.5.1/../../../../pic32mx/lib/libc.a(powers.o)
 .pdr           0x00000000        0x0 /Applications/microchip/mplabc32/v2.00/bin/../lib/gcc/pic32mx/4.5.1/../../../../pic32mx/lib/libc.a(powers.o)
 .reginfo       0x00000000       0x18 /Applications/microchip/mplabc32/v2.00/bin/../lib/gcc/pic32mx/4.5.1/../../../../pic32mx/lib/libc.a(write.o)
 .pdr           0x00000000       0x20 /Applications/microchip/mplabc32/v2.00/bin/../lib/gcc/pic32mx/4.5.1/../../../../pic32mx/lib/libc.a(write.o)
 .reginfo       0x00000000       0x18 /Applications/microchip/mplabc32/v2.00/bin/../lib/gcc/pic32mx/4.5.1/../../../../pic32mx/lib/libc.a(_iob.o)
 .pdr           0x00000000        0x0 /Applications/microchip/mplabc32/v2.00/bin/../lib/gcc/pic32mx/4.5.1/../../../../pic32mx/lib/libc.a(_iob.o)
 .reginfo       0x00000000       0x18 /Applications/microchip/mplabc32/v2.00/bin/../lib/gcc/pic32mx/4.5.1/../../../../pic32mx/lib/libc.a(_flsbuf_simple.o)
 .pdr           0x00000000       0x20 /Applications/microchip/mplabc32/v2.00/bin/../lib/gcc/pic32mx/4.5.1/../../../../pic32mx/lib/libc.a(_flsbuf_simple.o)
 .reginfo       0x00000000       0x18 /Applications/microchip/mplabc32/v2.00/bin/../lib/gcc/pic32mx/4.5.1/../../../../pic32mx/lib/libc.a(_mon_putc.o)
 .pdr           0x00000000       0x20 /Applications/microchip/mplabc32/v2.00/bin/../lib/gcc/pic32mx/4.5.1/../../../../pic32mx/lib/libc.a(_mon_putc.o)
 .reginfo       0x00000000       0x18 /Applications/microchip/mplabc32/v2.00/bin/../lib/gcc/pic32mx/4.5.1/../../../../pic32mx/lib/libc.a(c32_uart.o)
 .pdr           0x00000000        0x0 /Applications/microchip/mplabc32/v2.00/bin/../lib/gcc/pic32mx/4.5.1/../../../../pic32mx/lib/libc.a(c32_uart.o)
 .reginfo       0x00000000       0x18 /Applications/microchip/mplabc32/v2.00/bin/../lib/gcc/pic32mx/4.5.1/../../../../pic32mx/lib/libm.a(w_asinf.o)
 .pdr           0x00000000       0x20 /Applications/microchip/mplabc32/v2.00/bin/../lib/gcc/pic32mx/4.5.1/../../../../pic32mx/lib/libm.a(w_asinf.o)
 .reginfo       0x00000000       0x18 /Applications/microchip/mplabc32/v2.00/bin/../lib/gcc/pic32mx/4.5.1/../../../../pic32mx/lib/libm.a(fpmod32.o)
 .pdr           0x00000000        0x0 /Applications/microchip/mplabc32/v2.00/bin/../lib/gcc/pic32mx/4.5.1/../../../../pic32mx/lib/libm.a(fpmod32.o)
 .reginfo       0x00000000       0x18 /Applications/microchip/mplabc32/v2.00/bin/../lib/gcc/pic32mx/4.5.1/../../../../pic32mx/lib/libm.a(dp32.o)
 .pdr           0x00000000        0x0 /Applications/microchip/mplabc32/v2.00/bin/../lib/gcc/pic32mx/4.5.1/../../../../pic32mx/lib/libm.a(dp32.o)
 .reginfo       0x00000000       0x18 /Applications/microchip/mplabc32/v2.00/bin/../lib/gcc/pic32mx/4.5.1/../../../../pic32mx/lib/libm.a(w_sqrtf.o)
 .pdr           0x00000000       0x20 /Applications/microchip/mplabc32/v2.00/bin/../lib/gcc/pic32mx/4.5.1/../../../../pic32mx/lib/libm.a(w_sqrtf.o)
 .reginfo       0x00000000       0x18 /Applications/microchip/mplabc32/v2.00/bin/../lib/gcc/pic32mx/4.5.1/../../../../pic32mx/lib/libm.a(fp32.o)
 .pdr           0x00000000        0x0 /Applications/microchip/mplabc32/v2.00/bin/../lib/gcc/pic32mx/4.5.1/../../../../pic32mx/lib/libm.a(fp32.o)
 .reginfo       0x00000000       0x18 /Applications/microchip/mplabc32/v2.00/bin/../lib/gcc/pic32mx/4.5.1/../../../../pic32mx/lib/libm.a(s_lib_ver.o)
 .pdr           0x00000000        0x0 /Applications/microchip/mplabc32/v2.00/bin/../lib/gcc/pic32mx/4.5.1/../../../../pic32mx/lib/libm.a(s_lib_ver.o)
 .reginfo       0x00000000       0x18 /Applications/microchip/mplabc32/v2.00/bin/../lib/gcc/pic32mx/4.5.1/../../../../pic32mx/lib/libm.a(fparc32.o)
 .pdr           0x00000000        0x0 /Applications/microchip/mplabc32/v2.00/bin/../lib/gcc/pic32mx/4.5.1/../../../../pic32mx/lib/libm.a(fparc32.o)
 .reginfo       0x00000000       0x18 /Applications/microchip/mplabc32/v2.00/bin/../lib/gcc/pic32mx/4.5.1/../../../../pic32mx/lib/libm.a(fpsqrt32.o)
 .pdr           0x00000000        0x0 /Applications/microchip/mplabc32/v2.00/bin/../lib/gcc/pic32mx/4.5.1/../../../../pic32mx/lib/libm.a(fpsqrt32.o)
 .reginfo       0x00000000       0x18 /Applications/microchip/mplabc32/v2.00/bin/../lib/gcc/pic32mx/4.5.1/../../../../pic32mx/lib/libe.a(_floatdisf.o)
 .pdr           0x00000000       0x20 /Applications/microchip/mplabc32/v2.00/bin/../lib/gcc/pic32mx/4.5.1/../../../../pic32mx/lib/libe.a(_floatdisf.o)
 .reginfo       0x00000000       0x18 /Applications/microchip/mplabc32/v2.00/bin/../lib/gcc/pic32mx/4.5.1/../../../../pic32mx/lib/libmchp_peripheral_32MX795F512L.a(int_configure_system_lib.o)
 .pdr           0x00000000       0x20 /Applications/microchip/mplabc32/v2.00/bin/../lib/gcc/pic32mx/4.5.1/../../../../pic32mx/lib/libmchp_peripheral_32MX795F512L.a(int_configure_system_lib.o)
 .reginfo       0x00000000       0x18 /Applications/microchip/mplabc32/v2.00/bin/../lib/gcc/pic32mx/4.5.1/../../../../pic32mx/lib/libmchp_peripheral_32MX795F512L.a(int_enable_interrupts_lib.o)
 .pdr           0x00000000       0x20 /Applications/microchip/mplabc32/v2.00/bin/../lib/gcc/pic32mx/4.5.1/../../../../pic32mx/lib/libmchp_peripheral_32MX795F512L.a(int_enable_interrupts_lib.o)
 .reginfo       0x00000000       0x18 /Applications/microchip/mplabc32/v2.00/bin/../lib/gcc/pic32mx/4.5.1/../../../../pic32mx/lib/libmchp_peripheral_32MX795F512L.a(int_enable_mv_int_lib.o)
 .pdr           0x00000000       0x20 /Applications/microchip/mplabc32/v2.00/bin/../lib/gcc/pic32mx/4.5.1/../../../../pic32mx/lib/libmchp_peripheral_32MX795F512L.a(int_enable_mv_int_lib.o)
 .reginfo       0x00000000       0x18 /Applications/microchip/mplabc32/v2.00/bin/../lib/gcc/pic32mx/4.5.1/../../../../pic32mx/lib/libmchp_peripheral_32MX795F512L.a(int_tbl_lib.o)
 .pdr           0x00000000      0x120 /Applications/microchip/mplabc32/v2.00/bin/../lib/gcc/pic32mx/4.5.1/../../../../pic32mx/lib/libmchp_peripheral_32MX795F512L.a(int_tbl_lib.o)
 .reginfo       0x00000000       0x18 /Applications/microchip/mplabc32/v2.00/bin/../lib/gcc/pic32mx/4.5.1/../../../../pic32mx/lib/libmchp_peripheral_32MX795F512L.a(I2CAcknowledgeByte.o)
 .pdr           0x00000000       0x20 /Applications/microchip/mplabc32/v2.00/bin/../lib/gcc/pic32mx/4.5.1/../../../../pic32mx/lib/libmchp_peripheral_32MX795F512L.a(I2CAcknowledgeByte.o)
 .reginfo       0x00000000       0x18 /Applications/microchip/mplabc32/v2.00/bin/../lib/gcc/pic32mx/4.5.1/../../../../pic32mx/lib/libmchp_peripheral_32MX795F512L.a(I2CByteWasAcknowledged.o)
 .pdr           0x00000000       0x20 /Applications/microchip/mplabc32/v2.00/bin/../lib/gcc/pic32mx/4.5.1/../../../../pic32mx/lib/libmchp_peripheral_32MX795F512L.a(I2CByteWasAcknowledged.o)
 .reginfo       0x00000000       0x18 /Applications/microchip/mplabc32/v2.00/bin/../lib/gcc/pic32mx/4.5.1/../../../../pic32mx/lib/libmchp_peripheral_32MX795F512L.a(I2CGetByte.o)
 .pdr           0x00000000       0x20 /Applications/microchip/mplabc32/v2.00/bin/../lib/gcc/pic32mx/4.5.1/../../../../pic32mx/lib/libmchp_peripheral_32MX795F512L.a(I2CGetByte.o)
 .reginfo       0x00000000       0x18 /Applications/microchip/mplabc32/v2.00/bin/../lib/gcc/pic32mx/4.5.1/../../../../pic32mx/lib/libmchp_peripheral_32MX795F512L.a(I2CReceiverEnable.o)
 .pdr           0x00000000       0x20 /Applications/microchip/mplabc32/v2.00/bin/../lib/gcc/pic32mx/4.5.1/../../../../pic32mx/lib/libmchp_peripheral_32MX795F512L.a(I2CReceiverEnable.o)
 .reginfo       0x00000000       0x18 /Applications/microchip/mplabc32/v2.00/bin/../lib/gcc/pic32mx/4.5.1/../../../../pic32mx/lib/libmchp_peripheral_32MX795F512L.a(I2CRepeatStart.o)
 .pdr           0x00000000       0x20 /Applications/microchip/mplabc32/v2.00/bin/../lib/gcc/pic32mx/4.5.1/../../../../pic32mx/lib/libmchp_peripheral_32MX795F512L.a(I2CRepeatStart.o)
 .reginfo       0x00000000       0x18 /Applications/microchip/mplabc32/v2.00/bin/../lib/gcc/pic32mx/4.5.1/../../../../pic32mx/lib/libmchp_peripheral_32MX795F512L.a(I2CSendByte.o)
 .pdr           0x00000000       0x20 /Applications/microchip/mplabc32/v2.00/bin/../lib/gcc/pic32mx/4.5.1/../../../../pic32mx/lib/libmchp_peripheral_32MX795F512L.a(I2CSendByte.o)
 .reginfo       0x00000000       0x18 /Applications/microchip/mplabc32/v2.00/bin/../lib/gcc/pic32mx/4.5.1/../../../../pic32mx/lib/libmchp_peripheral_32MX795F512L.a(I2CStart.o)
 .pdr           0x00000000       0x20 /Applications/microchip/mplabc32/v2.00/bin/../lib/gcc/pic32mx/4.5.1/../../../../pic32mx/lib/libmchp_peripheral_32MX795F512L.a(I2CStart.o)
 .reginfo       0x00000000       0x18 /Applications/microchip/mplabc32/v2.00/bin/../lib/gcc/pic32mx/4.5.1/../../../../pic32mx/lib/libmchp_peripheral_32MX795F512L.a(I2CStop.o)
 .pdr           0x00000000       0x20 /Applications/microchip/mplabc32/v2.00/bin/../lib/gcc/pic32mx/4.5.1/../../../../pic32mx/lib/libmchp_peripheral_32MX795F512L.a(I2CStop.o)
 .reginfo       0x00000000       0x18 /Applications/microchip/mplabc32/v2.00/bin/../lib/gcc/pic32mx/4.5.1/../../../../pic32mx/lib/libmchp_peripheral_32MX795F512L.a(I2CTransmissionHasCompleted.o)
 .pdr           0x00000000       0x20 /Applications/microchip/mplabc32/v2.00/bin/../lib/gcc/pic32mx/4.5.1/../../../../pic32mx/lib/libmchp_peripheral_32MX795F512L.a(I2CTransmissionHasCompleted.o)
 .reginfo       0x00000000       0x18 /Applications/microchip/mplabc32/v2.00/bin/../lib/gcc/pic32mx/4.5.1/../../../../pic32mx/lib/libmchp_peripheral_32MX795F512L.a(I2CPrivate.o)
 .pdr           0x00000000        0x0 /Applications/microchip/mplabc32/v2.00/bin/../lib/gcc/pic32mx/4.5.1/../../../../pic32mx/lib/libmchp_peripheral_32MX795F512L.a(I2CPrivate.o)
 .reginfo       0x00000000       0x18 /Applications/microchip/mplabc32/v2.00/bin/../lib/gcc/pic32mx/4.5.1/../../../../pic32mx/lib/libc.a(errno.o)
 .pdr           0x00000000        0x0 /Applications/microchip/mplabc32/v2.00/bin/../lib/gcc/pic32mx/4.5.1/../../../../pic32mx/lib/libc.a(errno.o)
 .reginfo       0x00000000       0x18 /Applications/microchip/mplabc32/v2.00/bin/../lib/gcc/pic32mx/4.5.1/libgcc.a(_floatundisf.o)
 .pdr           0x00000000       0x20 /Applications/microchip/mplabc32/v2.00/bin/../lib/gcc/pic32mx/4.5.1/libgcc.a(_floatundisf.o)
 .reginfo       0x00000000       0x18 /Applications/microchip/mplabc32/v2.00/bin/../lib/gcc/pic32mx/4.5.1/libgcc.a(_udivdi3.o)
 .pdr           0x00000000       0x20 /Applications/microchip/mplabc32/v2.00/bin/../lib/gcc/pic32mx/4.5.1/libgcc.a(_udivdi3.o)
 .reginfo       0x00000000       0x18 /Applications/microchip/mplabc32/v2.00/bin/../lib/gcc/pic32mx/4.5.1/libgcc.a(_umoddi3.o)
 .pdr           0x00000000       0x20 /Applications/microchip/mplabc32/v2.00/bin/../lib/gcc/pic32mx/4.5.1/libgcc.a(_umoddi3.o)
 .reginfo       0x00000000       0x18 /Applications/microchip/mplabc32/v2.00/bin/../lib/gcc/pic32mx/4.5.1/libgcc.a(floatunsisf.o)
 .pdr           0x00000000       0x20 /Applications/microchip/mplabc32/v2.00/bin/../lib/gcc/pic32mx/4.5.1/libgcc.a(floatunsisf.o)
 .reginfo       0x00000000       0x18 /Applications/microchip/mplabc32/v2.00/bin/../lib/gcc/pic32mx/4.5.1/../../../../pic32mx/lib/./proc/32MX795F512L/processor.o
 .pdr           0x00000000        0x0 /Applications/microchip/mplabc32/v2.00/bin/../lib/gcc/pic32mx/4.5.1/../../../../pic32mx/lib/./proc/32MX795F512L/processor.o

Memory Configuration

Name             Origin             Length             Attributes
kseg0_program_mem 0x9d000000         0x00080000         xr
kseg0_boot_mem   0x9fc00490         0x00000970
exception_mem    0x9fc01000         0x00001000
kseg1_boot_mem   0xbfc00000         0x00000490
debug_exec_mem   0xbfc02000         0x00000ff0
config3          0xbfc02ff0         0x00000004
config2          0xbfc02ff4         0x00000004
config1          0xbfc02ff8         0x00000004
config0          0xbfc02ffc         0x00000004
kseg1_data_mem   0xa0000000         0x00020000         w !x
sfrs             0xbf800000         0x00100000
configsfrs       0xbfc02ff0         0x00000010
*default*        0x00000000         0xffffffff

Linker script and memory map

LOAD /Applications/microchip/mplabc32/v2.00/bin/../lib/gcc/pic32mx/4.5.1/../../../../pic32mx/lib/crt0.o
LOAD build/default/production/_ext/1472/Adc-Gruppio.o
LOAD build/default/production/_ext/1472/Adxl345.o
LOAD build/default/production/_ext/1472/App.o
LOAD build/default/production/_ext/1472/Filter.o
LOAD build/default/production/_ext/1472/Grapichs.o
LOAD build/default/production/_ext/1472/HMC6352.o
LOAD build/default/production/_ext/1472/I2C - Gruppio.o
LOAD build/default/production/_ext/1472/IGruppioV2.o
LOAD build/default/production/_ext/1472/ITG3200.o
LOAD build/default/production/_ext/1472/MLX90614.o
LOAD build/default/production/_ext/1472/Pic32mx7.o
LOAD build/default/production/_ext/1472/PicasoSGC.o
LOAD build/default/production/_ext/1472/Timer-PWM-Gruppio.o
LOAD build/default/production/_ext/1472/Uart-Gruppio.o
                0x00000001                __MPLAB_BUILD = 0x1
LOAD /Applications/microchip/mplabc32/v2.00/bin/../lib/gcc/pic32mx/4.5.1/libgcc.a
START GROUP
LOAD /Applications/microchip/mplabc32/v2.00/bin/../lib/gcc/pic32mx/4.5.1/../../../../pic32mx/lib/libdebug.a
LOAD /Applications/microchip/mplabc32/v2.00/bin/../lib/gcc/pic32mx/4.5.1/../../../../pic32mx/lib/libc.a
LOAD /Applications/microchip/mplabc32/v2.00/bin/../lib/gcc/pic32mx/4.5.1/../../../../pic32mx/lib/libm.a
LOAD /Applications/microchip/mplabc32/v2.00/bin/../lib/gcc/pic32mx/4.5.1/../../../../pic32mx/lib/libe.a
LOAD /Applications/microchip/mplabc32/v2.00/bin/../lib/gcc/pic32mx/4.5.1/../../../../pic32mx/lib/libdsp.a
LOAD /Applications/microchip/mplabc32/v2.00/bin/../lib/gcc/pic32mx/4.5.1/../../../../pic32mx/lib/libmchp_peripheral.a
LOAD /Applications/microchip/mplabc32/v2.00/bin/../lib/gcc/pic32mx/4.5.1/../../../../pic32mx/lib/libmchp_peripheral_32MX795F512L.a
END GROUP
LOAD /Applications/microchip/mplabc32/v2.00/bin/../lib/gcc/pic32mx/4.5.1/libgcc.a
                0x00000400                PROVIDE (_min_stack_size, 0x400)
                0x00000000                PROVIDE (_min_heap_size, 0x0)
LOAD /Applications/microchip/mplabc32/v2.00/bin/../lib/gcc/pic32mx/4.5.1/../../../../pic32mx/lib/./proc/32MX795F512L/processor.o
                0x00000001                PROVIDE (_vector_spacing, 0x1)
                0x9fc01000                _ebase_address = 0x9fc01000
                0xbfc00000                _RESET_ADDR = 0xbfc00000
                0xbfc00380                _BEV_EXCPT_ADDR = 0xbfc00380
                0xbfc00480                _DBG_EXCPT_ADDR = 0xbfc00480
                0xbfc02000                _DBG_CODE_ADDR = 0xbfc02000
                0x9fc01180                _GEN_EXCPT_ADDR = (_ebase_address + 0x180)

.config_BFC02FF0
 *(.config_BFC02FF0)

.config_BFC02FF4
                0xbfc02ff4        0x4
 *(.config_BFC02FF4)
 .config_BFC02FF4
                0xbfc02ff4        0x4 build/default/production/_ext/1472/Pic32mx7.o

.config_BFC02FF8
                0xbfc02ff8        0x4
 *(.config_BFC02FF8)
 .config_BFC02FF8
                0xbfc02ff8        0x4 build/default/production/_ext/1472/Pic32mx7.o

.config_BFC02FFC
                0xbfc02ffc        0x4
 *(.config_BFC02FFC)
 .config_BFC02FFC
                0xbfc02ffc        0x4 build/default/production/_ext/1472/Pic32mx7.o

.reset          0xbfc00000      0x1b8
 *(.reset)
 .reset         0xbfc00000       0x10 /Applications/microchip/mplabc32/v2.00/bin/../lib/gcc/pic32mx/4.5.1/../../../../pic32mx/lib/crt0.o
                0xbfc00000                _reset
 *(.reset.startup)
 .reset.startup
                0xbfc00010      0x1a8 /Applications/microchip/mplabc32/v2.00/bin/../lib/gcc/pic32mx/4.5.1/../../../../pic32mx/lib/crt0.o

.bev_excpt      0xbfc00380       0x10
 *(.bev_handler)
 .bev_handler   0xbfc00380       0x10 /Applications/microchip/mplabc32/v2.00/bin/../lib/gcc/pic32mx/4.5.1/../../../../pic32mx/lib/crt0.o

.dbg_excpt      0xbfc00480        0x0
                0xbfc00480                . = (. + DEFINED (_DEBUGGER)?0x8:0x0)

.dbg_code       0xbfc02000        0x0
                0xbfc02000                . = (. + DEFINED (_DEBUGGER)?0xff0:0x0)

.app_excpt      0x9fc01180       0x10
 *(.gen_handler)
 .gen_handler   0x9fc01180       0x10 /Applications/microchip/mplabc32/v2.00/bin/../lib/gcc/pic32mx/4.5.1/../../../../pic32mx/lib/crt0.o

.vector_0       0x9fc01200        0x0
 *(.vector_0)
                0x00000001                ASSERT (((_vector_spacing == 0x0) || (SIZEOF (.vector_0) <= (_vector_spacing << 0x5))), function at exception vector 0 too large)

.vector_1       0x9fc01220        0x0
 *(.vector_1)
                0x00000001                ASSERT (((_vector_spacing == 0x0) || (SIZEOF (.vector_1) <= (_vector_spacing << 0x5))), function at exception vector 1 too large)

.vector_2       0x9fc01240        0x0
 *(.vector_2)
                0x00000001                ASSERT (((_vector_spacing == 0x0) || (SIZEOF (.vector_2) <= (_vector_spacing << 0x5))), function at exception vector 2 too large)

.vector_3       0x9fc01260        0x0
 *(.vector_3)
                0x00000001                ASSERT (((_vector_spacing == 0x0) || (SIZEOF (.vector_3) <= (_vector_spacing << 0x5))), function at exception vector 3 too large)

.vector_4       0x9fc01280        0x0
 *(.vector_4)
                0x00000001                ASSERT (((_vector_spacing == 0x0) || (SIZEOF (.vector_4) <= (_vector_spacing << 0x5))), function at exception vector 4 too large)

.vector_5       0x9fc012a0        0x0
 *(.vector_5)
                0x00000001                ASSERT (((_vector_spacing == 0x0) || (SIZEOF (.vector_5) <= (_vector_spacing << 0x5))), function at exception vector 5 too large)

.vector_6       0x9fc012c0        0x0
 *(.vector_6)
                0x00000001                ASSERT (((_vector_spacing == 0x0) || (SIZEOF (.vector_6) <= (_vector_spacing << 0x5))), function at exception vector 6 too large)

.vector_7       0x9fc012e0        0x8
 *(.vector_7)
 .vector_7      0x9fc012e0        0x8 build/default/production/_ext/1472/Pic32mx7.o
                0x00000001                ASSERT (((_vector_spacing == 0x0) || (SIZEOF (.vector_7) <= (_vector_spacing << 0x5))), function at exception vector 7 too large)

.vector_8       0x9fc01300        0x0
 *(.vector_8)
                0x00000001                ASSERT (((_vector_spacing == 0x0) || (SIZEOF (.vector_8) <= (_vector_spacing << 0x5))), function at exception vector 8 too large)

.vector_9       0x9fc01320        0x0
 *(.vector_9)
                0x00000001                ASSERT (((_vector_spacing == 0x0) || (SIZEOF (.vector_9) <= (_vector_spacing << 0x5))), function at exception vector 9 too large)

.vector_10      0x9fc01340        0x0
 *(.vector_10)
                0x00000001                ASSERT (((_vector_spacing == 0x0) || (SIZEOF (.vector_10) <= (_vector_spacing << 0x5))), function at exception vector 10 too large)

.vector_11      0x9fc01360        0x0
 *(.vector_11)
                0x00000001                ASSERT (((_vector_spacing == 0x0) || (SIZEOF (.vector_11) <= (_vector_spacing << 0x5))), function at exception vector 11 too large)

.vector_12      0x9fc01380        0x0
 *(.vector_12)
                0x00000001                ASSERT (((_vector_spacing == 0x0) || (SIZEOF (.vector_12) <= (_vector_spacing << 0x5))), function at exception vector 12 too large)

.vector_13      0x9fc013a0        0x0
 *(.vector_13)
                0x00000001                ASSERT (((_vector_spacing == 0x0) || (SIZEOF (.vector_13) <= (_vector_spacing << 0x5))), function at exception vector 13 too large)

.vector_14      0x9fc013c0        0x0
 *(.vector_14)
                0x00000001                ASSERT (((_vector_spacing == 0x0) || (SIZEOF (.vector_14) <= (_vector_spacing << 0x5))), function at exception vector 14 too large)

.vector_15      0x9fc013e0        0x0
 *(.vector_15)
                0x00000001                ASSERT (((_vector_spacing == 0x0) || (SIZEOF (.vector_15) <= (_vector_spacing << 0x5))), function at exception vector 15 too large)

.vector_16      0x9fc01400        0x0
 *(.vector_16)
                0x00000001                ASSERT (((_vector_spacing == 0x0) || (SIZEOF (.vector_16) <= (_vector_spacing << 0x5))), function at exception vector 16 too large)

.vector_17      0x9fc01420        0x0
 *(.vector_17)
                0x00000001                ASSERT (((_vector_spacing == 0x0) || (SIZEOF (.vector_17) <= (_vector_spacing << 0x5))), function at exception vector 17 too large)

.vector_18      0x9fc01440        0x0
 *(.vector_18)
                0x00000001                ASSERT (((_vector_spacing == 0x0) || (SIZEOF (.vector_18) <= (_vector_spacing << 0x5))), function at exception vector 18 too large)

.vector_19      0x9fc01460        0x0
 *(.vector_19)
                0x00000001                ASSERT (((_vector_spacing == 0x0) || (SIZEOF (.vector_19) <= (_vector_spacing << 0x5))), function at exception vector 19 too large)

.vector_20      0x9fc01480        0x0
 *(.vector_20)
                0x00000001                ASSERT (((_vector_spacing == 0x0) || (SIZEOF (.vector_20) <= (_vector_spacing << 0x5))), function at exception vector 20 too large)

.vector_21      0x9fc014a0        0x0
 *(.vector_21)
                0x00000001                ASSERT (((_vector_spacing == 0x0) || (SIZEOF (.vector_21) <= (_vector_spacing << 0x5))), function at exception vector 21 too large)

.vector_22      0x9fc014c0        0x0
 *(.vector_22)
                0x00000001                ASSERT (((_vector_spacing == 0x0) || (SIZEOF (.vector_22) <= (_vector_spacing << 0x5))), function at exception vector 22 too large)

.vector_23      0x9fc014e0        0x0
 *(.vector_23)
                0x00000001                ASSERT (((_vector_spacing == 0x0) || (SIZEOF (.vector_23) <= (_vector_spacing << 0x5))), function at exception vector 23 too large)

.vector_24      0x9fc01500        0x0
 *(.vector_24)
                0x00000001                ASSERT (((_vector_spacing == 0x0) || (SIZEOF (.vector_24) <= (_vector_spacing << 0x5))), function at exception vector 24 too large)

.vector_25      0x9fc01520        0x0
 *(.vector_25)
                0x00000001                ASSERT (((_vector_spacing == 0x0) || (SIZEOF (.vector_25) <= (_vector_spacing << 0x5))), function at exception vector 25 too large)

.vector_26      0x9fc01540        0x0
 *(.vector_26)
                0x00000001                ASSERT (((_vector_spacing == 0x0) || (SIZEOF (.vector_26) <= (_vector_spacing << 0x5))), function at exception vector 26 too large)

.vector_27      0x9fc01560        0x0
 *(.vector_27)
                0x00000001                ASSERT (((_vector_spacing == 0x0) || (SIZEOF (.vector_27) <= (_vector_spacing << 0x5))), function at exception vector 27 too large)

.vector_28      0x9fc01580        0x0
 *(.vector_28)
                0x00000001                ASSERT (((_vector_spacing == 0x0) || (SIZEOF (.vector_28) <= (_vector_spacing << 0x5))), function at exception vector 28 too large)

.vector_29      0x9fc015a0        0x0
 *(.vector_29)
                0x00000001                ASSERT (((_vector_spacing == 0x0) || (SIZEOF (.vector_29) <= (_vector_spacing << 0x5))), function at exception vector 29 too large)

.vector_30      0x9fc015c0        0x0
 *(.vector_30)
                0x00000001                ASSERT (((_vector_spacing == 0x0) || (SIZEOF (.vector_30) <= (_vector_spacing << 0x5))), function at exception vector 30 too large)

.vector_31      0x9fc015e0        0x0
 *(.vector_31)
                0x00000001                ASSERT (((_vector_spacing == 0x0) || (SIZEOF (.vector_31) <= (_vector_spacing << 0x5))), function at exception vector 31 too large)

.vector_32      0x9fc01600        0x8
 *(.vector_32)
 .vector_32     0x9fc01600        0x8 build/default/production/_ext/1472/Pic32mx7.o
                0x00000001                ASSERT (((_vector_spacing == 0x0) || (SIZEOF (.vector_32) <= (_vector_spacing << 0x5))), function at exception vector 32 too large)

.vector_33      0x9fc01620        0x0
 *(.vector_33)
                0x00000001                ASSERT (((_vector_spacing == 0x0) || (SIZEOF (.vector_33) <= (_vector_spacing << 0x5))), function at exception vector 33 too large)

.vector_34      0x9fc01640        0x0
 *(.vector_34)
                0x00000001                ASSERT (((_vector_spacing == 0x0) || (SIZEOF (.vector_34) <= (_vector_spacing << 0x5))), function at exception vector 34 too large)

.vector_35      0x9fc01660        0x0
 *(.vector_35)
                0x00000001                ASSERT (((_vector_spacing == 0x0) || (SIZEOF (.vector_35) <= (_vector_spacing << 0x5))), function at exception vector 35 too large)

.vector_36      0x9fc01680        0x0
 *(.vector_36)
                0x00000001                ASSERT (((_vector_spacing == 0x0) || (SIZEOF (.vector_36) <= (_vector_spacing << 0x5))), function at exception vector 36 too large)

.vector_37      0x9fc016a0        0x0
 *(.vector_37)
                0x00000001                ASSERT (((_vector_spacing == 0x0) || (SIZEOF (.vector_37) <= (_vector_spacing << 0x5))), function at exception vector 37 too large)

.vector_38      0x9fc016c0        0x0
 *(.vector_38)
                0x00000001                ASSERT (((_vector_spacing == 0x0) || (SIZEOF (.vector_38) <= (_vector_spacing << 0x5))), function at exception vector 38 too large)

.vector_39      0x9fc016e0        0x0
 *(.vector_39)
                0x00000001                ASSERT (((_vector_spacing == 0x0) || (SIZEOF (.vector_39) <= (_vector_spacing << 0x5))), function at exception vector 39 too large)

.vector_40      0x9fc01700        0x0
 *(.vector_40)
                0x00000001                ASSERT (((_vector_spacing == 0x0) || (SIZEOF (.vector_40) <= (_vector_spacing << 0x5))), function at exception vector 40 too large)

.vector_41      0x9fc01720        0x0
 *(.vector_41)
                0x00000001                ASSERT (((_vector_spacing == 0x0) || (SIZEOF (.vector_41) <= (_vector_spacing << 0x5))), function at exception vector 41 too large)

.vector_42      0x9fc01740        0x0
 *(.vector_42)
                0x00000001                ASSERT (((_vector_spacing == 0x0) || (SIZEOF (.vector_42) <= (_vector_spacing << 0x5))), function at exception vector 42 too large)

.vector_43      0x9fc01760        0x0
 *(.vector_43)
                0x00000001                ASSERT (((_vector_spacing == 0x0) || (SIZEOF (.vector_43) <= (_vector_spacing << 0x5))), function at exception vector 43 too large)

.vector_44      0x9fc01780        0x0
 *(.vector_44)
                0x00000001                ASSERT (((_vector_spacing == 0x0) || (SIZEOF (.vector_44) <= (_vector_spacing << 0x5))), function at exception vector 44 too large)

.vector_45      0x9fc017a0        0x0
 *(.vector_45)
                0x00000001                ASSERT (((_vector_spacing == 0x0) || (SIZEOF (.vector_45) <= (_vector_spacing << 0x5))), function at exception vector 45 too large)

.vector_46      0x9fc017c0        0x0
 *(.vector_46)
                0x00000001                ASSERT (((_vector_spacing == 0x0) || (SIZEOF (.vector_46) <= (_vector_spacing << 0x5))), function at exception vector 46 too large)

.vector_47      0x9fc017e0        0x0
 *(.vector_47)
                0x00000001                ASSERT (((_vector_spacing == 0x0) || (SIZEOF (.vector_47) <= (_vector_spacing << 0x5))), function at exception vector 47 too large)

.vector_48      0x9fc01800        0x0
 *(.vector_48)
                0x00000001                ASSERT (((_vector_spacing == 0x0) || (SIZEOF (.vector_48) <= (_vector_spacing << 0x5))), function at exception vector 48 too large)

.vector_49      0x9fc01820        0x0
 *(.vector_49)
                0x00000001                ASSERT (((_vector_spacing == 0x0) || (SIZEOF (.vector_49) <= (_vector_spacing << 0x5))), function at exception vector 49 too large)

.vector_50      0x9fc01840        0x0
 *(.vector_50)
                0x00000001                ASSERT (((_vector_spacing == 0x0) || (SIZEOF (.vector_50) <= (_vector_spacing << 0x5))), function at exception vector 50 too large)

.vector_51      0x9fc01860        0x0
 *(.vector_51)
                0x00000001                ASSERT (((_vector_spacing == 0x0) || (SIZEOF (.vector_51) <= (_vector_spacing << 0x5))), function at exception vector 51 too large)

.vector_52      0x9fc01880        0x0
 *(.vector_52)
                0x00000001                ASSERT (((_vector_spacing == 0x0) || (SIZEOF (.vector_52) <= (_vector_spacing << 0x5))), function at exception vector 52 too large)

.vector_53      0x9fc018a0        0x0
 *(.vector_53)
                0x00000001                ASSERT (((_vector_spacing == 0x0) || (SIZEOF (.vector_53) <= (_vector_spacing << 0x5))), function at exception vector 53 too large)

.vector_54      0x9fc018c0        0x0
 *(.vector_54)
                0x00000001                ASSERT (((_vector_spacing == 0x0) || (SIZEOF (.vector_54) <= (_vector_spacing << 0x5))), function at exception vector 54 too large)

.vector_55      0x9fc018e0        0x0
 *(.vector_55)
                0x00000001                ASSERT (((_vector_spacing == 0x0) || (SIZEOF (.vector_55) <= (_vector_spacing << 0x5))), function at exception vector 55 too large)

.vector_56      0x9fc01900        0x0
 *(.vector_56)
                0x00000001                ASSERT (((_vector_spacing == 0x0) || (SIZEOF (.vector_56) <= (_vector_spacing << 0x5))), function at exception vector 56 too large)

.vector_57      0x9fc01920        0x0
 *(.vector_57)
                0x00000001                ASSERT (((_vector_spacing == 0x0) || (SIZEOF (.vector_57) <= (_vector_spacing << 0x5))), function at exception vector 57 too large)

.vector_58      0x9fc01940        0x0
 *(.vector_58)
                0x00000001                ASSERT (((_vector_spacing == 0x0) || (SIZEOF (.vector_58) <= (_vector_spacing << 0x5))), function at exception vector 58 too large)

.vector_59      0x9fc01960        0x0
 *(.vector_59)
                0x00000001                ASSERT (((_vector_spacing == 0x0) || (SIZEOF (.vector_59) <= (_vector_spacing << 0x5))), function at exception vector 59 too large)

.vector_60      0x9fc01980        0x0
 *(.vector_60)
                0x00000001                ASSERT (((_vector_spacing == 0x0) || (SIZEOF (.vector_60) <= (_vector_spacing << 0x5))), function at exception vector 60 too large)

.vector_61      0x9fc019a0        0x0
 *(.vector_61)
                0x00000001                ASSERT (((_vector_spacing == 0x0) || (SIZEOF (.vector_61) <= (_vector_spacing << 0x5))), function at exception vector 61 too large)

.vector_62      0x9fc019c0        0x0
 *(.vector_62)
                0x00000001                ASSERT (((_vector_spacing == 0x0) || (SIZEOF (.vector_62) <= (_vector_spacing << 0x5))), function at exception vector 62 too large)

.vector_63      0x9fc019e0        0x0
 *(.vector_63)
                0x00000001                ASSERT (((_vector_spacing == 0x0) || (SIZEOF (.vector_63) <= (_vector_spacing << 0x5))), function at exception vector 63 too large)

.startup
 *(.startup)

.text
 *(.stub .gnu.linkonce.t.*)
 *(.text.*personality*)
 *(.mips16.fn.*)
 *(.mips16.call.*)
 *(.gnu.warning)

.rodata         0x9d000000      0x9f8
 *(.rodata.* .gnu.linkonce.r.*)
 .rodata._ctype
                0x9d000000      0x104 /Applications/microchip/mplabc32/v2.00/bin/../lib/gcc/pic32mx/4.5.1/../../../../pic32mx/lib/libc.a(ctype.o)
                0x9d000000                _ctype
 *fill*         0x9d000104        0x4 00
 .rodata.dpowers
                0x9d000108       0xa0 /Applications/microchip/mplabc32/v2.00/bin/../lib/gcc/pic32mx/4.5.1/../../../../pic32mx/lib/libc.a(doprnt_fF.eo)
 .rodata._powers_f
                0x9d0001a8       0x34 /Applications/microchip/mplabc32/v2.00/bin/../lib/gcc/pic32mx/4.5.1/../../../../pic32mx/lib/libc.a(powers.o)
                0x9d0001a8                _powers_f
 .rodata._npowers_f
                0x9d0001dc       0x34 /Applications/microchip/mplabc32/v2.00/bin/../lib/gcc/pic32mx/4.5.1/../../../../pic32mx/lib/libc.a(powers.o)
                0x9d0001dc                _npowers_f
 .rodata.__IntSrcTbl
                0x9d000210      0x51c /Applications/microchip/mplabc32/v2.00/bin/../lib/gcc/pic32mx/4.5.1/../../../../pic32mx/lib/libmchp_peripheral_32MX795F512L.a(int_tbl_lib.o)
                0x9d000210                __IntSrcTbl
 .rodata.__IntVectorTbl
                0x9d00072c      0x2b8 /Applications/microchip/mplabc32/v2.00/bin/../lib/gcc/pic32mx/4.5.1/../../../../pic32mx/lib/libmchp_peripheral_32MX795F512L.a(int_tbl_lib.o)
                0x9d00072c                __IntVectorTbl
 .rodata.i2cBase
                0x9d0009e4       0x14 /Applications/microchip/mplabc32/v2.00/bin/../lib/gcc/pic32mx/4.5.1/../../../../pic32mx/lib/libmchp_peripheral_32MX795F512L.a(I2CPrivate.o)
                0x9d0009e4                i2cBase
 *(.rodata1)
                0x9d0009f8                . = ALIGN (0x4)

.sdata2         0x9d0009f8        0x0
 *(.sdata2 .sdata2.* .gnu.linkonce.s2.*)
                0x9d0009f8                . = ALIGN (0x4)

.sbss2          0x9d0009f8        0x0
 *(.sbss2 .sbss2.* .gnu.linkonce.sb2.*)
                0x9d0009f8                . = ALIGN (0x4)

.eh_frame_hdr
 *(.eh_frame_hdr)

.eh_frame
 *(.eh_frame)

.dbg_data       0xa0000000        0x0
                0xa0000000                . = (. + DEFINED (_DEBUGGER)?0x200:0x0)

.persist        0xa0000000        0x0
                0xa0000000                _persist_begin = .
 *(.persist .persist.*)
                0xa0000000                . = ALIGN (0x4)
                0xa0000000                _persist_end = .

.eh_frame       0xa0000000       0x30
 *(.eh_frame)
 .eh_frame      0xa0000000       0x20 /Applications/microchip/mplabc32/v2.00/bin/../lib/gcc/pic32mx/4.5.1/libgcc.a(_udivdi3.o)
 .eh_frame      0xa0000020       0x10 /Applications/microchip/mplabc32/v2.00/bin/../lib/gcc/pic32mx/4.5.1/libgcc.a(_umoddi3.o)
                                 0x20 (size before relaxing)
                0xa0000030                . = .
                0xa0008020                _gp = (ALIGN (0x10) + 0x7ff0)

.got
 *(.got.plt)
 *(.got)

.sdata          0xa0000030        0xc
                0xa0000030                _sdata_begin = .
 *(.sdata .sdata.* .gnu.linkonce.s.*)
 .sdata         0xa0000030        0x4 build/default/production/_ext/1472/Pic32mx7.o
                0xa0000030                AppOpen
 .sdata._Files  0xa0000034        0x4 /Applications/microchip/mplabc32/v2.00/bin/../lib/gcc/pic32mx/4.5.1/../../../../pic32mx/lib/libc.a(_iob.o)
                0xa0000034                _Files
 .sdata         0xa0000038        0x4 /Applications/microchip/mplabc32/v2.00/bin/../lib/gcc/pic32mx/4.5.1/../../../../pic32mx/lib/libc.a(c32_uart.o)
                0xa0000038                __C32_UART
                0xa000003c                _sdata_end = .

.lit8
 *(.lit8)

.lit4
 *(.lit4)
                0xa000003c                . = ALIGN (0x4)
                0xa000003c                _data_end = .
                0xa000003c                _bss_begin = .

.sbss           0xa000003c       0x24
                0xa000003c                _sbss_begin = .
 *(.dynsbss)
 *(.sbss .sbss.* .gnu.linkonce.sb.*)
 .sbss          0xa000003c        0xc build/default/production/_ext/1472/Pic32mx7.o
                0xa000003c                Stop
                0xa000003d                NewGPSData
                0xa000003e                GPSInit
                0xa0000040                GPSDataLenght
                0xa0000044                RxIndex
 .sbss._outdone
                0xa0000048        0x1 /Applications/microchip/mplabc32/v2.00/bin/../lib/gcc/pic32mx/4.5.1/../../../../pic32mx/lib/libc.a(_iob.o)
                0xa0000048                _outdone
 *fill*         0xa0000049        0x3 00
 .sbss.errno    0xa000004c        0x4 /Applications/microchip/mplabc32/v2.00/bin/../lib/gcc/pic32mx/4.5.1/../../../../pic32mx/lib/libc.a(errno.o)
                0xa000004c                errno
 *(.scommon)
 .scommon       0xa0000050       0x10 build/default/production/_ext/1472/Pic32mx7.o
                0xa0000050                Pag
                0xa0000054                NApp
                0xa0000058                WriteCol
                0xa000005c                BackgroundCol
                0xa0000060                _sbss_end = .

.bss            0xa0000060      0x200
 *(.dynbss)
 *(COMMON)
 COMMON         0xa0000060      0x200 build/default/production/_ext/1472/Pic32mx7.o
                0xa0000060                RxBuffer
                0xa0000160                GPSData
                0xa0000260                . = ALIGN (0x4)
                0xa0000260                . = ALIGN (0x4)
                0xa0000260                _end = .
                0xa0000260                _bss_end = .
                0x00020000                _bmxdudba_address = 0x20000
                0x00020000                _bmxdupba_address = 0x20000

/DISCARD/
 *(.pdr)
 *(.reginfo)
 *(.rel.dyn)
 *(.note.GNU-stack)
 *(.note.GNU-stack)
 *(.gnu_debuglink)
 *(.gnu.lto_*)
 *(.discard)

.stab
 *(.stab)

.stabstr
 *(.stabstr)

.stab.excl
 *(.stab.excl)

.stab.exclstr
 *(.stab.exclstr)

.stab.index
 *(.stab.index)

.stab.indexstr
 *(.stab.indexstr)

.comment        0x00000000      0x1e1
 *(.comment)
 .comment       0x00000000       0x51 build/default/production/_ext/1472/Adc-Gruppio.o
                                 0x52 (size before relaxing)
 .comment       0x00000000       0x52 build/default/production/_ext/1472/Adxl345.o
 .comment       0x00000000       0x52 build/default/production/_ext/1472/App.o
 .comment       0x00000000       0x52 build/default/production/_ext/1472/Filter.o
 .comment       0x00000000       0x52 build/default/production/_ext/1472/Grapichs.o
 .comment       0x00000000       0x52 build/default/production/_ext/1472/HMC6352.o
 .comment       0x00000000       0x52 build/default/production/_ext/1472/I2C - Gruppio.o
 .comment       0x00000000       0x52 build/default/production/_ext/1472/IGruppioV2.o
 .comment       0x00000000       0x52 build/default/production/_ext/1472/ITG3200.o
 .comment       0x00000000       0x52 build/default/production/_ext/1472/MLX90614.o
 .comment       0x00000000       0x52 build/default/production/_ext/1472/Pic32mx7.o
 .comment       0x00000000       0x52 build/default/production/_ext/1472/PicasoSGC.o
 .comment       0x00000000       0x52 build/default/production/_ext/1472/Timer-PWM-Gruppio.o
 .comment       0x00000000       0x52 build/default/production/_ext/1472/Uart-Gruppio.o
 .comment       0x00000051       0x55 /Applications/microchip/mplabc32/v2.00/bin/../lib/gcc/pic32mx/4.5.1/../../../../pic32mx/lib/libc.a(strlen.o)
                                 0x56 (size before relaxing)
 .comment       0x000000a6       0x4f /Applications/microchip/mplabc32/v2.00/bin/../lib/gcc/pic32mx/4.5.1/../../../../pic32mx/lib/libc.a(ctypef.o)
                                 0xa1 (size before relaxing)
 .comment       0x00000000       0x52 /Applications/microchip/mplabc32/v2.00/bin/../lib/gcc/pic32mx/4.5.1/../../../../pic32mx/lib/libc.a(sprintf_fF.eo)
 .comment       0x00000000       0x52 /Applications/microchip/mplabc32/v2.00/bin/../lib/gcc/pic32mx/4.5.1/../../../../pic32mx/lib/libc.a(default-general-exception-handler.o)
 .comment       0x00000000       0x52 /Applications/microchip/mplabc32/v2.00/bin/../lib/gcc/pic32mx/4.5.1/../../../../pic32mx/lib/libc.a(default-bootstrap-exception-handler.o)
 .comment       0x00000000       0x52 /Applications/microchip/mplabc32/v2.00/bin/../lib/gcc/pic32mx/4.5.1/../../../../pic32mx/lib/libc.a(default-on-reset.o)
 .comment       0x00000000       0x52 /Applications/microchip/mplabc32/v2.00/bin/../lib/gcc/pic32mx/4.5.1/../../../../pic32mx/lib/libc.a(default-on-bootstrap.o)
 .comment       0x000000f5       0x4e /Applications/microchip/mplabc32/v2.00/bin/../lib/gcc/pic32mx/4.5.1/../../../../pic32mx/lib/libc.a(ctype.o)
                                 0xa0 (size before relaxing)
 .comment       0x00000000       0x52 /Applications/microchip/mplabc32/v2.00/bin/../lib/gcc/pic32mx/4.5.1/../../../../pic32mx/lib/libc.a(doprnt_fF.eo)
 .comment       0x00000000       0x52 /Applications/microchip/mplabc32/v2.00/bin/../lib/gcc/pic32mx/4.5.1/../../../../pic32mx/lib/libc.a(_fputc_simple.o)
 .comment       0x00000000       0x52 /Applications/microchip/mplabc32/v2.00/bin/../lib/gcc/pic32mx/4.5.1/../../../../pic32mx/lib/libc.a(powers.o)
 .comment       0x00000000       0x52 /Applications/microchip/mplabc32/v2.00/bin/../lib/gcc/pic32mx/4.5.1/../../../../pic32mx/lib/libc.a(write.o)
 .comment       0x00000000       0x52 /Applications/microchip/mplabc32/v2.00/bin/../lib/gcc/pic32mx/4.5.1/../../../../pic32mx/lib/libc.a(_iob.o)
 .comment       0x00000000       0x52 /Applications/microchip/mplabc32/v2.00/bin/../lib/gcc/pic32mx/4.5.1/../../../../pic32mx/lib/libc.a(_flsbuf_simple.o)
 .comment       0x00000000       0x52 /Applications/microchip/mplabc32/v2.00/bin/../lib/gcc/pic32mx/4.5.1/../../../../pic32mx/lib/libc.a(_mon_putc.o)
 .comment       0x00000000       0x52 /Applications/microchip/mplabc32/v2.00/bin/../lib/gcc/pic32mx/4.5.1/../../../../pic32mx/lib/libc.a(c32_uart.o)
 .comment       0x00000000       0x52 /Applications/microchip/mplabc32/v2.00/bin/../lib/gcc/pic32mx/4.5.1/../../../../pic32mx/lib/libm.a(w_asinf.o)
 .comment       0x00000000       0x52 /Applications/microchip/mplabc32/v2.00/bin/../lib/gcc/pic32mx/4.5.1/../../../../pic32mx/lib/libm.a(w_sqrtf.o)
 .comment       0x00000000       0x52 /Applications/microchip/mplabc32/v2.00/bin/../lib/gcc/pic32mx/4.5.1/../../../../pic32mx/lib/libm.a(s_lib_ver.o)
 .comment       0x00000143       0x9e /Applications/microchip/mplabc32/v2.00/bin/../lib/gcc/pic32mx/4.5.1/../../../../pic32mx/lib/libe.a(_floatdisf.o)
                                 0xf0 (size before relaxing)
 .comment       0x00000000       0x52 /Applications/microchip/mplabc32/v2.00/bin/../lib/gcc/pic32mx/4.5.1/../../../../pic32mx/lib/libmchp_peripheral_32MX795F512L.a(int_configure_system_lib.o)
 .comment       0x00000000       0x52 /Applications/microchip/mplabc32/v2.00/bin/../lib/gcc/pic32mx/4.5.1/../../../../pic32mx/lib/libmchp_peripheral_32MX795F512L.a(int_enable_interrupts_lib.o)
 .comment       0x00000000       0x52 /Applications/microchip/mplabc32/v2.00/bin/../lib/gcc/pic32mx/4.5.1/../../../../pic32mx/lib/libmchp_peripheral_32MX795F512L.a(int_enable_mv_int_lib.o)
 .comment       0x00000000       0x52 /Applications/microchip/mplabc32/v2.00/bin/../lib/gcc/pic32mx/4.5.1/../../../../pic32mx/lib/libmchp_peripheral_32MX795F512L.a(int_tbl_lib.o)
 .comment       0x00000000       0x52 /Applications/microchip/mplabc32/v2.00/bin/../lib/gcc/pic32mx/4.5.1/../../../../pic32mx/lib/libmchp_peripheral_32MX795F512L.a(I2CAcknowledgeByte.o)
 .comment       0x00000000       0x52 /Applications/microchip/mplabc32/v2.00/bin/../lib/gcc/pic32mx/4.5.1/../../../../pic32mx/lib/libmchp_peripheral_32MX795F512L.a(I2CByteWasAcknowledged.o)
 .comment       0x00000000       0x52 /Applications/microchip/mplabc32/v2.00/bin/../lib/gcc/pic32mx/4.5.1/../../../../pic32mx/lib/libmchp_peripheral_32MX795F512L.a(I2CGetByte.o)
 .comment       0x00000000       0x52 /Applications/microchip/mplabc32/v2.00/bin/../lib/gcc/pic32mx/4.5.1/../../../../pic32mx/lib/libmchp_peripheral_32MX795F512L.a(I2CReceiverEnable.o)
 .comment       0x00000000       0x52 /Applications/microchip/mplabc32/v2.00/bin/../lib/gcc/pic32mx/4.5.1/../../../../pic32mx/lib/libmchp_peripheral_32MX795F512L.a(I2CRepeatStart.o)
 .comment       0x00000000       0x52 /Applications/microchip/mplabc32/v2.00/bin/../lib/gcc/pic32mx/4.5.1/../../../../pic32mx/lib/libmchp_peripheral_32MX795F512L.a(I2CSendByte.o)
 .comment       0x00000000       0x52 /Applications/microchip/mplabc32/v2.00/bin/../lib/gcc/pic32mx/4.5.1/../../../../pic32mx/lib/libmchp_peripheral_32MX795F512L.a(I2CStart.o)
 .comment       0x00000000       0x52 /Applications/microchip/mplabc32/v2.00/bin/../lib/gcc/pic32mx/4.5.1/../../../../pic32mx/lib/libmchp_peripheral_32MX795F512L.a(I2CStop.o)
 .comment       0x00000000       0x52 /Applications/microchip/mplabc32/v2.00/bin/../lib/gcc/pic32mx/4.5.1/../../../../pic32mx/lib/libmchp_peripheral_32MX795F512L.a(I2CTransmissionHasCompleted.o)
 .comment       0x00000000       0x52 /Applications/microchip/mplabc32/v2.00/bin/../lib/gcc/pic32mx/4.5.1/../../../../pic32mx/lib/libmchp_peripheral_32MX795F512L.a(I2CPrivate.o)
 .comment       0x00000000       0x52 /Applications/microchip/mplabc32/v2.00/bin/../lib/gcc/pic32mx/4.5.1/../../../../pic32mx/lib/libc.a(errno.o)
 .comment       0x00000000       0x52 /Applications/microchip/mplabc32/v2.00/bin/../lib/gcc/pic32mx/4.5.1/libgcc.a(_floatundisf.o)
 .comment       0x00000000       0x52 /Applications/microchip/mplabc32/v2.00/bin/../lib/gcc/pic32mx/4.5.1/libgcc.a(_udivdi3.o)
 .comment       0x00000000       0x52 /Applications/microchip/mplabc32/v2.00/bin/../lib/gcc/pic32mx/4.5.1/libgcc.a(_umoddi3.o)
 .comment       0x00000000       0x52 /Applications/microchip/mplabc32/v2.00/bin/../lib/gcc/pic32mx/4.5.1/libgcc.a(floatunsisf.o)

.debug
 *(.debug)

.line
 *(.line)

.debug_srcinfo
 *(.debug_srcinfo)

.debug_sfnames
 *(.debug_sfnames)

.debug_aranges  0x00000000      0x4a8
 *(.debug_aranges)
 .debug_aranges
                0x00000000       0xa0 /Applications/microchip/mplabc32/v2.00/bin/../lib/gcc/pic32mx/4.5.1/../../../../pic32mx/lib/libc.a(ctypef.o)
 .debug_aranges
                0x000000a0       0x20 /Applications/microchip/mplabc32/v2.00/bin/../lib/gcc/pic32mx/4.5.1/../../../../pic32mx/lib/libc.a(sprintf_fF.eo)
 .debug_aranges
                0x000000c0       0x20 /Applications/microchip/mplabc32/v2.00/bin/../lib/gcc/pic32mx/4.5.1/../../../../pic32mx/lib/libc.a(default-general-exception-handler.o)
 .debug_aranges
                0x000000e0       0x20 /Applications/microchip/mplabc32/v2.00/bin/../lib/gcc/pic32mx/4.5.1/../../../../pic32mx/lib/libc.a(default-bootstrap-exception-handler.o)
 .debug_aranges
                0x00000100       0x20 /Applications/microchip/mplabc32/v2.00/bin/../lib/gcc/pic32mx/4.5.1/../../../../pic32mx/lib/libc.a(default-on-reset.o)
 .debug_aranges
                0x00000120       0x20 /Applications/microchip/mplabc32/v2.00/bin/../lib/gcc/pic32mx/4.5.1/../../../../pic32mx/lib/libc.a(default-on-bootstrap.o)
 .debug_aranges
                0x00000140       0x28 /Applications/microchip/mplabc32/v2.00/bin/../lib/gcc/pic32mx/4.5.1/../../../../pic32mx/lib/libc.a(doprnt_fF.eo)
 .debug_aranges
                0x00000168       0x20 /Applications/microchip/mplabc32/v2.00/bin/../lib/gcc/pic32mx/4.5.1/../../../../pic32mx/lib/libc.a(_fputc_simple.o)
 .debug_aranges
                0x00000188       0x20 /Applications/microchip/mplabc32/v2.00/bin/../lib/gcc/pic32mx/4.5.1/../../../../pic32mx/lib/libc.a(write.o)
 .debug_aranges
                0x000001a8       0x20 /Applications/microchip/mplabc32/v2.00/bin/../lib/gcc/pic32mx/4.5.1/../../../../pic32mx/lib/libc.a(_flsbuf_simple.o)
 .debug_aranges
                0x000001c8       0x20 /Applications/microchip/mplabc32/v2.00/bin/../lib/gcc/pic32mx/4.5.1/../../../../pic32mx/lib/libc.a(_mon_putc.o)
 .debug_aranges
                0x000001e8       0x20 /Applications/microchip/mplabc32/v2.00/bin/../lib/gcc/pic32mx/4.5.1/../../../../pic32mx/lib/libm.a(w_asinf.o)
 .debug_aranges
                0x00000208       0x20 /Applications/microchip/mplabc32/v2.00/bin/../lib/gcc/pic32mx/4.5.1/../../../../pic32mx/lib/libm.a(w_sqrtf.o)
 .debug_aranges
                0x00000228       0x20 /Applications/microchip/mplabc32/v2.00/bin/../lib/gcc/pic32mx/4.5.1/../../../../pic32mx/lib/libe.a(_floatdisf.o)
 .debug_aranges
                0x00000248       0x20 /Applications/microchip/mplabc32/v2.00/bin/../lib/gcc/pic32mx/4.5.1/../../../../pic32mx/lib/libmchp_peripheral_32MX795F512L.a(int_configure_system_lib.o)
 .debug_aranges
                0x00000268       0x20 /Applications/microchip/mplabc32/v2.00/bin/../lib/gcc/pic32mx/4.5.1/../../../../pic32mx/lib/libmchp_peripheral_32MX795F512L.a(int_enable_interrupts_lib.o)
 .debug_aranges
                0x00000288       0x20 /Applications/microchip/mplabc32/v2.00/bin/../lib/gcc/pic32mx/4.5.1/../../../../pic32mx/lib/libmchp_peripheral_32MX795F512L.a(int_enable_mv_int_lib.o)
 .debug_aranges
                0x000002a8       0x60 /Applications/microchip/mplabc32/v2.00/bin/../lib/gcc/pic32mx/4.5.1/../../../../pic32mx/lib/libmchp_peripheral_32MX795F512L.a(int_tbl_lib.o)
 .debug_aranges
                0x00000308       0x20 /Applications/microchip/mplabc32/v2.00/bin/../lib/gcc/pic32mx/4.5.1/../../../../pic32mx/lib/libmchp_peripheral_32MX795F512L.a(I2CAcknowledgeByte.o)
 .debug_aranges
                0x00000328       0x20 /Applications/microchip/mplabc32/v2.00/bin/../lib/gcc/pic32mx/4.5.1/../../../../pic32mx/lib/libmchp_peripheral_32MX795F512L.a(I2CByteWasAcknowledged.o)
 .debug_aranges
                0x00000348       0x20 /Applications/microchip/mplabc32/v2.00/bin/../lib/gcc/pic32mx/4.5.1/../../../../pic32mx/lib/libmchp_peripheral_32MX795F512L.a(I2CGetByte.o)
 .debug_aranges
                0x00000368       0x20 /Applications/microchip/mplabc32/v2.00/bin/../lib/gcc/pic32mx/4.5.1/../../../../pic32mx/lib/libmchp_peripheral_32MX795F512L.a(I2CReceiverEnable.o)
 .debug_aranges
                0x00000388       0x20 /Applications/microchip/mplabc32/v2.00/bin/../lib/gcc/pic32mx/4.5.1/../../../../pic32mx/lib/libmchp_peripheral_32MX795F512L.a(I2CRepeatStart.o)
 .debug_aranges
                0x000003a8       0x20 /Applications/microchip/mplabc32/v2.00/bin/../lib/gcc/pic32mx/4.5.1/../../../../pic32mx/lib/libmchp_peripheral_32MX795F512L.a(I2CSendByte.o)
 .debug_aranges
                0x000003c8       0x20 /Applications/microchip/mplabc32/v2.00/bin/../lib/gcc/pic32mx/4.5.1/../../../../pic32mx/lib/libmchp_peripheral_32MX795F512L.a(I2CStart.o)
 .debug_aranges
                0x000003e8       0x20 /Applications/microchip/mplabc32/v2.00/bin/../lib/gcc/pic32mx/4.5.1/../../../../pic32mx/lib/libmchp_peripheral_32MX795F512L.a(I2CStop.o)
 .debug_aranges
                0x00000408       0x20 /Applications/microchip/mplabc32/v2.00/bin/../lib/gcc/pic32mx/4.5.1/../../../../pic32mx/lib/libmchp_peripheral_32MX795F512L.a(I2CTransmissionHasCompleted.o)
 .debug_aranges
                0x00000428       0x20 /Applications/microchip/mplabc32/v2.00/bin/../lib/gcc/pic32mx/4.5.1/libgcc.a(_floatundisf.o)
 .debug_aranges
                0x00000448       0x20 /Applications/microchip/mplabc32/v2.00/bin/../lib/gcc/pic32mx/4.5.1/libgcc.a(_udivdi3.o)
 .debug_aranges
                0x00000468       0x20 /Applications/microchip/mplabc32/v2.00/bin/../lib/gcc/pic32mx/4.5.1/libgcc.a(_umoddi3.o)
 .debug_aranges
                0x00000488       0x20 /Applications/microchip/mplabc32/v2.00/bin/../lib/gcc/pic32mx/4.5.1/libgcc.a(floatunsisf.o)

.debug_pubnames
                0x00000000      0x5ce
 *(.debug_pubnames)
 .debug_pubnames
                0x00000000       0xe1 /Applications/microchip/mplabc32/v2.00/bin/../lib/gcc/pic32mx/4.5.1/../../../../pic32mx/lib/libc.a(ctypef.o)
 .debug_pubnames
                0x000000e1       0x22 /Applications/microchip/mplabc32/v2.00/bin/../lib/gcc/pic32mx/4.5.1/../../../../pic32mx/lib/libc.a(sprintf_fF.eo)
 .debug_pubnames
                0x00000103       0x31 /Applications/microchip/mplabc32/v2.00/bin/../lib/gcc/pic32mx/4.5.1/../../../../pic32mx/lib/libc.a(default-general-exception-handler.o)
 .debug_pubnames
                0x00000134       0x33 /Applications/microchip/mplabc32/v2.00/bin/../lib/gcc/pic32mx/4.5.1/../../../../pic32mx/lib/libc.a(default-bootstrap-exception-handler.o)
 .debug_pubnames
                0x00000167       0x20 /Applications/microchip/mplabc32/v2.00/bin/../lib/gcc/pic32mx/4.5.1/../../../../pic32mx/lib/libc.a(default-on-reset.o)
 .debug_pubnames
                0x00000187       0x24 /Applications/microchip/mplabc32/v2.00/bin/../lib/gcc/pic32mx/4.5.1/../../../../pic32mx/lib/libc.a(default-on-bootstrap.o)
 .debug_pubnames
                0x000001ab       0x23 /Applications/microchip/mplabc32/v2.00/bin/../lib/gcc/pic32mx/4.5.1/../../../../pic32mx/lib/libc.a(doprnt_fF.eo)
 .debug_pubnames
                0x000001ce       0x1c /Applications/microchip/mplabc32/v2.00/bin/../lib/gcc/pic32mx/4.5.1/../../../../pic32mx/lib/libc.a(_fputc_simple.o)
 .debug_pubnames
                0x000001ea       0x1c /Applications/microchip/mplabc32/v2.00/bin/../lib/gcc/pic32mx/4.5.1/../../../../pic32mx/lib/libc.a(write.o)
 .debug_pubnames
                0x00000206       0x1e /Applications/microchip/mplabc32/v2.00/bin/../lib/gcc/pic32mx/4.5.1/../../../../pic32mx/lib/libc.a(_flsbuf_simple.o)
 .debug_pubnames
                0x00000224       0x20 /Applications/microchip/mplabc32/v2.00/bin/../lib/gcc/pic32mx/4.5.1/../../../../pic32mx/lib/libc.a(_mon_putc.o)
 .debug_pubnames
                0x00000244       0x1c /Applications/microchip/mplabc32/v2.00/bin/../lib/gcc/pic32mx/4.5.1/../../../../pic32mx/lib/libm.a(w_asinf.o)
 .debug_pubnames
                0x00000260       0x1c /Applications/microchip/mplabc32/v2.00/bin/../lib/gcc/pic32mx/4.5.1/../../../../pic32mx/lib/libm.a(w_sqrtf.o)
 .debug_pubnames
                0x0000027c       0x22 /Applications/microchip/mplabc32/v2.00/bin/../lib/gcc/pic32mx/4.5.1/../../../../pic32mx/lib/libe.a(_floatdisf.o)
 .debug_pubnames
                0x0000029e       0x29 /Applications/microchip/mplabc32/v2.00/bin/../lib/gcc/pic32mx/4.5.1/../../../../pic32mx/lib/libmchp_peripheral_32MX795F512L.a(int_configure_system_lib.o)
 .debug_pubnames
                0x000002c7       0x2a /Applications/microchip/mplabc32/v2.00/bin/../lib/gcc/pic32mx/4.5.1/../../../../pic32mx/lib/libmchp_peripheral_32MX795F512L.a(int_enable_interrupts_lib.o)
 .debug_pubnames
                0x000002f1       0x36 /Applications/microchip/mplabc32/v2.00/bin/../lib/gcc/pic32mx/4.5.1/../../../../pic32mx/lib/libmchp_peripheral_32MX795F512L.a(int_enable_mv_int_lib.o)
 .debug_pubnames
                0x00000327       0xca /Applications/microchip/mplabc32/v2.00/bin/../lib/gcc/pic32mx/4.5.1/../../../../pic32mx/lib/libmchp_peripheral_32MX795F512L.a(int_tbl_lib.o)
 .debug_pubnames
                0x000003f1       0x29 /Applications/microchip/mplabc32/v2.00/bin/../lib/gcc/pic32mx/4.5.1/../../../../pic32mx/lib/libmchp_peripheral_32MX795F512L.a(I2CAcknowledgeByte.o)
 .debug_pubnames
                0x0000041a       0x2d /Applications/microchip/mplabc32/v2.00/bin/../lib/gcc/pic32mx/4.5.1/../../../../pic32mx/lib/libmchp_peripheral_32MX795F512L.a(I2CByteWasAcknowledged.o)
 .debug_pubnames
                0x00000447       0x21 /Applications/microchip/mplabc32/v2.00/bin/../lib/gcc/pic32mx/4.5.1/../../../../pic32mx/lib/libmchp_peripheral_32MX795F512L.a(I2CGetByte.o)
 .debug_pubnames
                0x00000468       0x28 /Applications/microchip/mplabc32/v2.00/bin/../lib/gcc/pic32mx/4.5.1/../../../../pic32mx/lib/libmchp_peripheral_32MX795F512L.a(I2CReceiverEnable.o)
 .debug_pubnames
                0x00000490       0x25 /Applications/microchip/mplabc32/v2.00/bin/../lib/gcc/pic32mx/4.5.1/../../../../pic32mx/lib/libmchp_peripheral_32MX795F512L.a(I2CRepeatStart.o)
 .debug_pubnames
                0x000004b5       0x22 /Applications/microchip/mplabc32/v2.00/bin/../lib/gcc/pic32mx/4.5.1/../../../../pic32mx/lib/libmchp_peripheral_32MX795F512L.a(I2CSendByte.o)
 .debug_pubnames
                0x000004d7       0x1f /Applications/microchip/mplabc32/v2.00/bin/../lib/gcc/pic32mx/4.5.1/../../../../pic32mx/lib/libmchp_peripheral_32MX795F512L.a(I2CStart.o)
 .debug_pubnames
                0x000004f6       0x1e /Applications/microchip/mplabc32/v2.00/bin/../lib/gcc/pic32mx/4.5.1/../../../../pic32mx/lib/libmchp_peripheral_32MX795F512L.a(I2CStop.o)
 .debug_pubnames
                0x00000514       0x32 /Applications/microchip/mplabc32/v2.00/bin/../lib/gcc/pic32mx/4.5.1/../../../../pic32mx/lib/libmchp_peripheral_32MX795F512L.a(I2CTransmissionHasCompleted.o)
 .debug_pubnames
                0x00000546       0x24 /Applications/microchip/mplabc32/v2.00/bin/../lib/gcc/pic32mx/4.5.1/libgcc.a(_floatundisf.o)
 .debug_pubnames
                0x0000056a       0x20 /Applications/microchip/mplabc32/v2.00/bin/../lib/gcc/pic32mx/4.5.1/libgcc.a(_udivdi3.o)
 .debug_pubnames
                0x0000058a       0x20 /Applications/microchip/mplabc32/v2.00/bin/../lib/gcc/pic32mx/4.5.1/libgcc.a(_umoddi3.o)
 .debug_pubnames
                0x000005aa       0x24 /Applications/microchip/mplabc32/v2.00/bin/../lib/gcc/pic32mx/4.5.1/libgcc.a(floatunsisf.o)

.debug_info     0x00000000     0x2e27
 *(.debug_info .gnu.linkonce.wi.*)
 .debug_info    0x00000000      0x235 /Applications/microchip/mplabc32/v2.00/bin/../lib/gcc/pic32mx/4.5.1/../../../../pic32mx/lib/libc.a(ctypef.o)
 .debug_info    0x00000235       0xde /Applications/microchip/mplabc32/v2.00/bin/../lib/gcc/pic32mx/4.5.1/../../../../pic32mx/lib/libc.a(sprintf_fF.eo)
 .debug_info    0x00000313      0x102 /Applications/microchip/mplabc32/v2.00/bin/../lib/gcc/pic32mx/4.5.1/../../../../pic32mx/lib/libc.a(default-general-exception-handler.o)
 .debug_info    0x00000415      0x106 /Applications/microchip/mplabc32/v2.00/bin/../lib/gcc/pic32mx/4.5.1/../../../../pic32mx/lib/libc.a(default-bootstrap-exception-handler.o)
 .debug_info    0x0000051b       0xe0 /Applications/microchip/mplabc32/v2.00/bin/../lib/gcc/pic32mx/4.5.1/../../../../pic32mx/lib/libc.a(default-on-reset.o)
 .debug_info    0x000005fb       0xe8 /Applications/microchip/mplabc32/v2.00/bin/../lib/gcc/pic32mx/4.5.1/../../../../pic32mx/lib/libc.a(default-on-bootstrap.o)
 .debug_info    0x000006e3        0x0 /Applications/microchip/mplabc32/v2.00/bin/../lib/gcc/pic32mx/4.5.1/../../../../pic32mx/lib/libc.a(ctype.o)
 .debug_info    0x000006e3       0xff /Applications/microchip/mplabc32/v2.00/bin/../lib/gcc/pic32mx/4.5.1/../../../../pic32mx/lib/libc.a(doprnt_fF.eo)
 .debug_info    0x000007e2       0xd6 /Applications/microchip/mplabc32/v2.00/bin/../lib/gcc/pic32mx/4.5.1/../../../../pic32mx/lib/libc.a(_fputc_simple.o)
 .debug_info    0x000008b8        0x0 /Applications/microchip/mplabc32/v2.00/bin/../lib/gcc/pic32mx/4.5.1/../../../../pic32mx/lib/libc.a(powers.o)
 .debug_info    0x000008b8       0xd1 /Applications/microchip/mplabc32/v2.00/bin/../lib/gcc/pic32mx/4.5.1/../../../../pic32mx/lib/libc.a(write.o)
 .debug_info    0x00000989        0x0 /Applications/microchip/mplabc32/v2.00/bin/../lib/gcc/pic32mx/4.5.1/../../../../pic32mx/lib/libc.a(_iob.o)
 .debug_info    0x00000989       0xd9 /Applications/microchip/mplabc32/v2.00/bin/../lib/gcc/pic32mx/4.5.1/../../../../pic32mx/lib/libc.a(_flsbuf_simple.o)
 .debug_info    0x00000a62       0xd9 /Applications/microchip/mplabc32/v2.00/bin/../lib/gcc/pic32mx/4.5.1/../../../../pic32mx/lib/libc.a(_mon_putc.o)
 .debug_info    0x00000b3b        0x0 /Applications/microchip/mplabc32/v2.00/bin/../lib/gcc/pic32mx/4.5.1/../../../../pic32mx/lib/libc.a(c32_uart.o)
 .debug_info    0x00000b3b       0xd4 /Applications/microchip/mplabc32/v2.00/bin/../lib/gcc/pic32mx/4.5.1/../../../../pic32mx/lib/libm.a(w_asinf.o)
 .debug_info    0x00000c0f       0xd4 /Applications/microchip/mplabc32/v2.00/bin/../lib/gcc/pic32mx/4.5.1/../../../../pic32mx/lib/libm.a(w_sqrtf.o)
 .debug_info    0x00000ce3        0x0 /Applications/microchip/mplabc32/v2.00/bin/../lib/gcc/pic32mx/4.5.1/../../../../pic32mx/lib/libm.a(s_lib_ver.o)
 .debug_info    0x00000ce3       0xf3 /Applications/microchip/mplabc32/v2.00/bin/../lib/gcc/pic32mx/4.5.1/../../../../pic32mx/lib/libe.a(_floatdisf.o)
 .debug_info    0x00000dd6       0xfc /Applications/microchip/mplabc32/v2.00/bin/../lib/gcc/pic32mx/4.5.1/../../../../pic32mx/lib/libmchp_peripheral_32MX795F512L.a(int_configure_system_lib.o)
 .debug_info    0x00000ed2       0xfe /Applications/microchip/mplabc32/v2.00/bin/../lib/gcc/pic32mx/4.5.1/../../../../pic32mx/lib/libmchp_peripheral_32MX795F512L.a(int_enable_interrupts_lib.o)
 .debug_info    0x00000fd0      0x106 /Applications/microchip/mplabc32/v2.00/bin/../lib/gcc/pic32mx/4.5.1/../../../../pic32mx/lib/libmchp_peripheral_32MX795F512L.a(int_enable_mv_int_lib.o)
 .debug_info    0x000010d6      0x1e0 /Applications/microchip/mplabc32/v2.00/bin/../lib/gcc/pic32mx/4.5.1/../../../../pic32mx/lib/libmchp_peripheral_32MX795F512L.a(int_tbl_lib.o)
 .debug_info    0x000012b6       0xf6 /Applications/microchip/mplabc32/v2.00/bin/../lib/gcc/pic32mx/4.5.1/../../../../pic32mx/lib/libmchp_peripheral_32MX795F512L.a(I2CAcknowledgeByte.o)
 .debug_info    0x000013ac       0xfe /Applications/microchip/mplabc32/v2.00/bin/../lib/gcc/pic32mx/4.5.1/../../../../pic32mx/lib/libmchp_peripheral_32MX795F512L.a(I2CByteWasAcknowledged.o)
 .debug_info    0x000014aa       0xe6 /Applications/microchip/mplabc32/v2.00/bin/../lib/gcc/pic32mx/4.5.1/../../../../pic32mx/lib/libmchp_peripheral_32MX795F512L.a(I2CGetByte.o)
 .debug_info    0x00001590       0xf4 /Applications/microchip/mplabc32/v2.00/bin/../lib/gcc/pic32mx/4.5.1/../../../../pic32mx/lib/libmchp_peripheral_32MX795F512L.a(I2CReceiverEnable.o)
 .debug_info    0x00001684       0xee /Applications/microchip/mplabc32/v2.00/bin/../lib/gcc/pic32mx/4.5.1/../../../../pic32mx/lib/libmchp_peripheral_32MX795F512L.a(I2CRepeatStart.o)
 .debug_info    0x00001772       0xe8 /Applications/microchip/mplabc32/v2.00/bin/../lib/gcc/pic32mx/4.5.1/../../../../pic32mx/lib/libmchp_peripheral_32MX795F512L.a(I2CSendByte.o)
 .debug_info    0x0000185a       0xe2 /Applications/microchip/mplabc32/v2.00/bin/../lib/gcc/pic32mx/4.5.1/../../../../pic32mx/lib/libmchp_peripheral_32MX795F512L.a(I2CStart.o)
 .debug_info    0x0000193c       0xe0 /Applications/microchip/mplabc32/v2.00/bin/../lib/gcc/pic32mx/4.5.1/../../../../pic32mx/lib/libmchp_peripheral_32MX795F512L.a(I2CStop.o)
 .debug_info    0x00001a1c      0x108 /Applications/microchip/mplabc32/v2.00/bin/../lib/gcc/pic32mx/4.5.1/../../../../pic32mx/lib/libmchp_peripheral_32MX795F512L.a(I2CTransmissionHasCompleted.o)
 .debug_info    0x00001b24        0x0 /Applications/microchip/mplabc32/v2.00/bin/../lib/gcc/pic32mx/4.5.1/../../../../pic32mx/lib/libmchp_peripheral_32MX795F512L.a(I2CPrivate.o)
 .debug_info    0x00001b24        0x0 /Applications/microchip/mplabc32/v2.00/bin/../lib/gcc/pic32mx/4.5.1/../../../../pic32mx/lib/libc.a(errno.o)
 .debug_info    0x00001b24      0x2aa /Applications/microchip/mplabc32/v2.00/bin/../lib/gcc/pic32mx/4.5.1/libgcc.a(_floatundisf.o)
 .debug_info    0x00001dce      0x75d /Applications/microchip/mplabc32/v2.00/bin/../lib/gcc/pic32mx/4.5.1/libgcc.a(_udivdi3.o)
 .debug_info    0x0000252b      0x79a /Applications/microchip/mplabc32/v2.00/bin/../lib/gcc/pic32mx/4.5.1/libgcc.a(_umoddi3.o)
 .debug_info    0x00002cc5      0x162 /Applications/microchip/mplabc32/v2.00/bin/../lib/gcc/pic32mx/4.5.1/libgcc.a(floatunsisf.o)

.debug_abbrev   0x00000000      0x794
 *(.debug_abbrev)
 .debug_abbrev  0x00000000       0x25 /Applications/microchip/mplabc32/v2.00/bin/../lib/gcc/pic32mx/4.5.1/../../../../pic32mx/lib/libc.a(ctypef.o)
 .debug_abbrev  0x00000025       0x27 /Applications/microchip/mplabc32/v2.00/bin/../lib/gcc/pic32mx/4.5.1/../../../../pic32mx/lib/libc.a(sprintf_fF.eo)
 .debug_abbrev  0x0000004c       0x25 /Applications/microchip/mplabc32/v2.00/bin/../lib/gcc/pic32mx/4.5.1/../../../../pic32mx/lib/libc.a(default-general-exception-handler.o)
 .debug_abbrev  0x00000071       0x25 /Applications/microchip/mplabc32/v2.00/bin/../lib/gcc/pic32mx/4.5.1/../../../../pic32mx/lib/libc.a(default-bootstrap-exception-handler.o)
 .debug_abbrev  0x00000096       0x25 /Applications/microchip/mplabc32/v2.00/bin/../lib/gcc/pic32mx/4.5.1/../../../../pic32mx/lib/libc.a(default-on-reset.o)
 .debug_abbrev  0x000000bb       0x25 /Applications/microchip/mplabc32/v2.00/bin/../lib/gcc/pic32mx/4.5.1/../../../../pic32mx/lib/libc.a(default-on-bootstrap.o)
 .debug_abbrev  0x000000e0        0x1 /Applications/microchip/mplabc32/v2.00/bin/../lib/gcc/pic32mx/4.5.1/../../../../pic32mx/lib/libc.a(ctype.o)
 .debug_abbrev  0x000000e1       0x45 /Applications/microchip/mplabc32/v2.00/bin/../lib/gcc/pic32mx/4.5.1/../../../../pic32mx/lib/libc.a(doprnt_fF.eo)
 .debug_abbrev  0x00000126       0x27 /Applications/microchip/mplabc32/v2.00/bin/../lib/gcc/pic32mx/4.5.1/../../../../pic32mx/lib/libc.a(_fputc_simple.o)
 .debug_abbrev  0x0000014d        0x1 /Applications/microchip/mplabc32/v2.00/bin/../lib/gcc/pic32mx/4.5.1/../../../../pic32mx/lib/libc.a(powers.o)
 .debug_abbrev  0x0000014e       0x25 /Applications/microchip/mplabc32/v2.00/bin/../lib/gcc/pic32mx/4.5.1/../../../../pic32mx/lib/libc.a(write.o)
 .debug_abbrev  0x00000173        0x1 /Applications/microchip/mplabc32/v2.00/bin/../lib/gcc/pic32mx/4.5.1/../../../../pic32mx/lib/libc.a(_iob.o)
 .debug_abbrev  0x00000174       0x27 /Applications/microchip/mplabc32/v2.00/bin/../lib/gcc/pic32mx/4.5.1/../../../../pic32mx/lib/libc.a(_flsbuf_simple.o)
 .debug_abbrev  0x0000019b       0x25 /Applications/microchip/mplabc32/v2.00/bin/../lib/gcc/pic32mx/4.5.1/../../../../pic32mx/lib/libc.a(_mon_putc.o)
 .debug_abbrev  0x000001c0        0x1 /Applications/microchip/mplabc32/v2.00/bin/../lib/gcc/pic32mx/4.5.1/../../../../pic32mx/lib/libc.a(c32_uart.o)
 .debug_abbrev  0x000001c1       0x25 /Applications/microchip/mplabc32/v2.00/bin/../lib/gcc/pic32mx/4.5.1/../../../../pic32mx/lib/libm.a(w_asinf.o)
 .debug_abbrev  0x000001e6       0x25 /Applications/microchip/mplabc32/v2.00/bin/../lib/gcc/pic32mx/4.5.1/../../../../pic32mx/lib/libm.a(w_sqrtf.o)
 .debug_abbrev  0x0000020b        0x1 /Applications/microchip/mplabc32/v2.00/bin/../lib/gcc/pic32mx/4.5.1/../../../../pic32mx/lib/libm.a(s_lib_ver.o)
 .debug_abbrev  0x0000020c       0x32 /Applications/microchip/mplabc32/v2.00/bin/../lib/gcc/pic32mx/4.5.1/../../../../pic32mx/lib/libe.a(_floatdisf.o)
 .debug_abbrev  0x0000023e       0x25 /Applications/microchip/mplabc32/v2.00/bin/../lib/gcc/pic32mx/4.5.1/../../../../pic32mx/lib/libmchp_peripheral_32MX795F512L.a(int_configure_system_lib.o)
 .debug_abbrev  0x00000263       0x25 /Applications/microchip/mplabc32/v2.00/bin/../lib/gcc/pic32mx/4.5.1/../../../../pic32mx/lib/libmchp_peripheral_32MX795F512L.a(int_enable_interrupts_lib.o)
 .debug_abbrev  0x00000288       0x25 /Applications/microchip/mplabc32/v2.00/bin/../lib/gcc/pic32mx/4.5.1/../../../../pic32mx/lib/libmchp_peripheral_32MX795F512L.a(int_enable_mv_int_lib.o)
 .debug_abbrev  0x000002ad       0x25 /Applications/microchip/mplabc32/v2.00/bin/../lib/gcc/pic32mx/4.5.1/../../../../pic32mx/lib/libmchp_peripheral_32MX795F512L.a(int_tbl_lib.o)
 .debug_abbrev  0x000002d2       0x25 /Applications/microchip/mplabc32/v2.00/bin/../lib/gcc/pic32mx/4.5.1/../../../../pic32mx/lib/libmchp_peripheral_32MX795F512L.a(I2CAcknowledgeByte.o)
 .debug_abbrev  0x000002f7       0x25 /Applications/microchip/mplabc32/v2.00/bin/../lib/gcc/pic32mx/4.5.1/../../../../pic32mx/lib/libmchp_peripheral_32MX795F512L.a(I2CByteWasAcknowledged.o)
 .debug_abbrev  0x0000031c       0x25 /Applications/microchip/mplabc32/v2.00/bin/../lib/gcc/pic32mx/4.5.1/../../../../pic32mx/lib/libmchp_peripheral_32MX795F512L.a(I2CGetByte.o)
 .debug_abbrev  0x00000341       0x25 /Applications/microchip/mplabc32/v2.00/bin/../lib/gcc/pic32mx/4.5.1/../../../../pic32mx/lib/libmchp_peripheral_32MX795F512L.a(I2CReceiverEnable.o)
 .debug_abbrev  0x00000366       0x25 /Applications/microchip/mplabc32/v2.00/bin/../lib/gcc/pic32mx/4.5.1/../../../../pic32mx/lib/libmchp_peripheral_32MX795F512L.a(I2CRepeatStart.o)
 .debug_abbrev  0x0000038b       0x25 /Applications/microchip/mplabc32/v2.00/bin/../lib/gcc/pic32mx/4.5.1/../../../../pic32mx/lib/libmchp_peripheral_32MX795F512L.a(I2CSendByte.o)
 .debug_abbrev  0x000003b0       0x25 /Applications/microchip/mplabc32/v2.00/bin/../lib/gcc/pic32mx/4.5.1/../../../../pic32mx/lib/libmchp_peripheral_32MX795F512L.a(I2CStart.o)
 .debug_abbrev  0x000003d5       0x25 /Applications/microchip/mplabc32/v2.00/bin/../lib/gcc/pic32mx/4.5.1/../../../../pic32mx/lib/libmchp_peripheral_32MX795F512L.a(I2CStop.o)
 .debug_abbrev  0x000003fa       0x25 /Applications/microchip/mplabc32/v2.00/bin/../lib/gcc/pic32mx/4.5.1/../../../../pic32mx/lib/libmchp_peripheral_32MX795F512L.a(I2CTransmissionHasCompleted.o)
 .debug_abbrev  0x0000041f        0x1 /Applications/microchip/mplabc32/v2.00/bin/../lib/gcc/pic32mx/4.5.1/../../../../pic32mx/lib/libmchp_peripheral_32MX795F512L.a(I2CPrivate.o)
 .debug_abbrev  0x00000420        0x1 /Applications/microchip/mplabc32/v2.00/bin/../lib/gcc/pic32mx/4.5.1/../../../../pic32mx/lib/libc.a(errno.o)
 .debug_abbrev  0x00000421       0x79 /Applications/microchip/mplabc32/v2.00/bin/../lib/gcc/pic32mx/4.5.1/libgcc.a(_floatundisf.o)
 .debug_abbrev  0x0000049a      0x13d /Applications/microchip/mplabc32/v2.00/bin/../lib/gcc/pic32mx/4.5.1/libgcc.a(_udivdi3.o)
 .debug_abbrev  0x000005d7      0x15c /Applications/microchip/mplabc32/v2.00/bin/../lib/gcc/pic32mx/4.5.1/libgcc.a(_umoddi3.o)
 .debug_abbrev  0x00000733       0x61 /Applications/microchip/mplabc32/v2.00/bin/../lib/gcc/pic32mx/4.5.1/libgcc.a(floatunsisf.o)

.debug_line     0x00000000     0x1202
 *(.debug_line)
 .debug_line    0x00000000       0x87 /Applications/microchip/mplabc32/v2.00/bin/../lib/gcc/pic32mx/4.5.1/../../../../pic32mx/lib/libc.a(ctypef.o)
 .debug_line    0x00000087       0x31 /Applications/microchip/mplabc32/v2.00/bin/../lib/gcc/pic32mx/4.5.1/../../../../pic32mx/lib/libc.a(sprintf_fF.eo)
 .debug_line    0x000000b8       0xa4 /Applications/microchip/mplabc32/v2.00/bin/../lib/gcc/pic32mx/4.5.1/../../../../pic32mx/lib/libc.a(default-general-exception-handler.o)
 .debug_line    0x0000015c       0xa6 /Applications/microchip/mplabc32/v2.00/bin/../lib/gcc/pic32mx/4.5.1/../../../../pic32mx/lib/libc.a(default-bootstrap-exception-handler.o)
 .debug_line    0x00000202       0x93 /Applications/microchip/mplabc32/v2.00/bin/../lib/gcc/pic32mx/4.5.1/../../../../pic32mx/lib/libc.a(default-on-reset.o)
 .debug_line    0x00000295       0x97 /Applications/microchip/mplabc32/v2.00/bin/../lib/gcc/pic32mx/4.5.1/../../../../pic32mx/lib/libc.a(default-on-bootstrap.o)
 .debug_line    0x0000032c        0x0 /Applications/microchip/mplabc32/v2.00/bin/../lib/gcc/pic32mx/4.5.1/../../../../pic32mx/lib/libc.a(ctype.o)
 .debug_line    0x0000032c       0x30 /Applications/microchip/mplabc32/v2.00/bin/../lib/gcc/pic32mx/4.5.1/../../../../pic32mx/lib/libc.a(doprnt_fF.eo)
 .debug_line    0x0000035c       0x2f /Applications/microchip/mplabc32/v2.00/bin/../lib/gcc/pic32mx/4.5.1/../../../../pic32mx/lib/libc.a(_fputc_simple.o)
 .debug_line    0x0000038b        0x0 /Applications/microchip/mplabc32/v2.00/bin/../lib/gcc/pic32mx/4.5.1/../../../../pic32mx/lib/libc.a(powers.o)
 .debug_line    0x0000038b       0x88 /Applications/microchip/mplabc32/v2.00/bin/../lib/gcc/pic32mx/4.5.1/../../../../pic32mx/lib/libc.a(write.o)
 .debug_line    0x00000413        0x0 /Applications/microchip/mplabc32/v2.00/bin/../lib/gcc/pic32mx/4.5.1/../../../../pic32mx/lib/libc.a(_iob.o)
 .debug_line    0x00000413       0x30 /Applications/microchip/mplabc32/v2.00/bin/../lib/gcc/pic32mx/4.5.1/../../../../pic32mx/lib/libc.a(_flsbuf_simple.o)
 .debug_line    0x00000443       0x8c /Applications/microchip/mplabc32/v2.00/bin/../lib/gcc/pic32mx/4.5.1/../../../../pic32mx/lib/libc.a(_mon_putc.o)
 .debug_line    0x000004cf        0x0 /Applications/microchip/mplabc32/v2.00/bin/../lib/gcc/pic32mx/4.5.1/../../../../pic32mx/lib/libc.a(c32_uart.o)
 .debug_line    0x000004cf       0x8b /Applications/microchip/mplabc32/v2.00/bin/../lib/gcc/pic32mx/4.5.1/../../../../pic32mx/lib/libm.a(w_asinf.o)
 .debug_line    0x0000055a       0x8b /Applications/microchip/mplabc32/v2.00/bin/../lib/gcc/pic32mx/4.5.1/../../../../pic32mx/lib/libm.a(w_sqrtf.o)
 .debug_line    0x000005e5        0x0 /Applications/microchip/mplabc32/v2.00/bin/../lib/gcc/pic32mx/4.5.1/../../../../pic32mx/lib/libm.a(s_lib_ver.o)
 .debug_line    0x000005e5       0xa6 /Applications/microchip/mplabc32/v2.00/bin/../lib/gcc/pic32mx/4.5.1/../../../../pic32mx/lib/libe.a(_floatdisf.o)
 .debug_line    0x0000068b       0xa6 /Applications/microchip/mplabc32/v2.00/bin/../lib/gcc/pic32mx/4.5.1/../../../../pic32mx/lib/libmchp_peripheral_32MX795F512L.a(int_configure_system_lib.o)
 .debug_line    0x00000731       0xa7 /Applications/microchip/mplabc32/v2.00/bin/../lib/gcc/pic32mx/4.5.1/../../../../pic32mx/lib/libmchp_peripheral_32MX795F512L.a(int_enable_interrupts_lib.o)
 .debug_line    0x000007d8       0xa3 /Applications/microchip/mplabc32/v2.00/bin/../lib/gcc/pic32mx/4.5.1/../../../../pic32mx/lib/libmchp_peripheral_32MX795F512L.a(int_enable_mv_int_lib.o)
 .debug_line    0x0000087b       0x99 /Applications/microchip/mplabc32/v2.00/bin/../lib/gcc/pic32mx/4.5.1/../../../../pic32mx/lib/libmchp_peripheral_32MX795F512L.a(int_tbl_lib.o)
 .debug_line    0x00000914       0xa0 /Applications/microchip/mplabc32/v2.00/bin/../lib/gcc/pic32mx/4.5.1/../../../../pic32mx/lib/libmchp_peripheral_32MX795F512L.a(I2CAcknowledgeByte.o)
 .debug_line    0x000009b4       0xa4 /Applications/microchip/mplabc32/v2.00/bin/../lib/gcc/pic32mx/4.5.1/../../../../pic32mx/lib/libmchp_peripheral_32MX795F512L.a(I2CByteWasAcknowledged.o)
 .debug_line    0x00000a58       0x98 /Applications/microchip/mplabc32/v2.00/bin/../lib/gcc/pic32mx/4.5.1/../../../../pic32mx/lib/libmchp_peripheral_32MX795F512L.a(I2CGetByte.o)
 .debug_line    0x00000af0       0x9f /Applications/microchip/mplabc32/v2.00/bin/../lib/gcc/pic32mx/4.5.1/../../../../pic32mx/lib/libmchp_peripheral_32MX795F512L.a(I2CReceiverEnable.o)
 .debug_line    0x00000b8f       0x9c /Applications/microchip/mplabc32/v2.00/bin/../lib/gcc/pic32mx/4.5.1/../../../../pic32mx/lib/libmchp_peripheral_32MX795F512L.a(I2CRepeatStart.o)
 .debug_line    0x00000c2b       0x99 /Applications/microchip/mplabc32/v2.00/bin/../lib/gcc/pic32mx/4.5.1/../../../../pic32mx/lib/libmchp_peripheral_32MX795F512L.a(I2CSendByte.o)
 .debug_line    0x00000cc4       0x96 /Applications/microchip/mplabc32/v2.00/bin/../lib/gcc/pic32mx/4.5.1/../../../../pic32mx/lib/libmchp_peripheral_32MX795F512L.a(I2CStart.o)
 .debug_line    0x00000d5a       0x95 /Applications/microchip/mplabc32/v2.00/bin/../lib/gcc/pic32mx/4.5.1/../../../../pic32mx/lib/libmchp_peripheral_32MX795F512L.a(I2CStop.o)
 .debug_line    0x00000def       0xa9 /Applications/microchip/mplabc32/v2.00/bin/../lib/gcc/pic32mx/4.5.1/../../../../pic32mx/lib/libmchp_peripheral_32MX795F512L.a(I2CTransmissionHasCompleted.o)
 .debug_line    0x00000e98        0x0 /Applications/microchip/mplabc32/v2.00/bin/../lib/gcc/pic32mx/4.5.1/../../../../pic32mx/lib/libmchp_peripheral_32MX795F512L.a(I2CPrivate.o)
 .debug_line    0x00000e98        0x0 /Applications/microchip/mplabc32/v2.00/bin/../lib/gcc/pic32mx/4.5.1/../../../../pic32mx/lib/libc.a(errno.o)
 .debug_line    0x00000e98       0xc3 /Applications/microchip/mplabc32/v2.00/bin/../lib/gcc/pic32mx/4.5.1/libgcc.a(_floatundisf.o)
 .debug_line    0x00000f5b      0x112 /Applications/microchip/mplabc32/v2.00/bin/../lib/gcc/pic32mx/4.5.1/libgcc.a(_udivdi3.o)
 .debug_line    0x0000106d      0x128 /Applications/microchip/mplabc32/v2.00/bin/../lib/gcc/pic32mx/4.5.1/libgcc.a(_umoddi3.o)
 .debug_line    0x00001195       0x6d /Applications/microchip/mplabc32/v2.00/bin/../lib/gcc/pic32mx/4.5.1/libgcc.a(floatunsisf.o)

.debug_frame    0x00000000      0x5f0
 *(.debug_frame)
 .debug_frame   0x00000000      0x120 /Applications/microchip/mplabc32/v2.00/bin/../lib/gcc/pic32mx/4.5.1/../../../../pic32mx/lib/libc.a(ctypef.o)
 .debug_frame   0x00000120       0x2c /Applications/microchip/mplabc32/v2.00/bin/../lib/gcc/pic32mx/4.5.1/../../../../pic32mx/lib/libc.a(sprintf_fF.eo)
 .debug_frame   0x0000014c       0x20 /Applications/microchip/mplabc32/v2.00/bin/../lib/gcc/pic32mx/4.5.1/../../../../pic32mx/lib/libc.a(default-general-exception-handler.o)
 .debug_frame   0x0000016c       0x20 /Applications/microchip/mplabc32/v2.00/bin/../lib/gcc/pic32mx/4.5.1/../../../../pic32mx/lib/libc.a(default-bootstrap-exception-handler.o)
 .debug_frame   0x0000018c       0x20 /Applications/microchip/mplabc32/v2.00/bin/../lib/gcc/pic32mx/4.5.1/../../../../pic32mx/lib/libc.a(default-on-reset.o)
 .debug_frame   0x000001ac       0x20 /Applications/microchip/mplabc32/v2.00/bin/../lib/gcc/pic32mx/4.5.1/../../../../pic32mx/lib/libc.a(default-on-bootstrap.o)
 .debug_frame   0x000001cc       0x5c /Applications/microchip/mplabc32/v2.00/bin/../lib/gcc/pic32mx/4.5.1/../../../../pic32mx/lib/libc.a(doprnt_fF.eo)
 .debug_frame   0x00000228       0x2c /Applications/microchip/mplabc32/v2.00/bin/../lib/gcc/pic32mx/4.5.1/../../../../pic32mx/lib/libc.a(_fputc_simple.o)
 .debug_frame   0x00000254       0x28 /Applications/microchip/mplabc32/v2.00/bin/../lib/gcc/pic32mx/4.5.1/../../../../pic32mx/lib/libc.a(write.o)
 .debug_frame   0x0000027c       0x28 /Applications/microchip/mplabc32/v2.00/bin/../lib/gcc/pic32mx/4.5.1/../../../../pic32mx/lib/libc.a(_flsbuf_simple.o)
 .debug_frame   0x000002a4       0x20 /Applications/microchip/mplabc32/v2.00/bin/../lib/gcc/pic32mx/4.5.1/../../../../pic32mx/lib/libc.a(_mon_putc.o)
 .debug_frame   0x000002c4       0x28 /Applications/microchip/mplabc32/v2.00/bin/../lib/gcc/pic32mx/4.5.1/../../../../pic32mx/lib/libm.a(w_asinf.o)
 .debug_frame   0x000002ec       0x28 /Applications/microchip/mplabc32/v2.00/bin/../lib/gcc/pic32mx/4.5.1/../../../../pic32mx/lib/libm.a(w_sqrtf.o)
 .debug_frame   0x00000314       0x20 /Applications/microchip/mplabc32/v2.00/bin/../lib/gcc/pic32mx/4.5.1/../../../../pic32mx/lib/libe.a(_floatdisf.o)
 .debug_frame   0x00000334       0x20 /Applications/microchip/mplabc32/v2.00/bin/../lib/gcc/pic32mx/4.5.1/../../../../pic32mx/lib/libmchp_peripheral_32MX795F512L.a(int_configure_system_lib.o)
 .debug_frame   0x00000354       0x20 /Applications/microchip/mplabc32/v2.00/bin/../lib/gcc/pic32mx/4.5.1/../../../../pic32mx/lib/libmchp_peripheral_32MX795F512L.a(int_enable_interrupts_lib.o)
 .debug_frame   0x00000374       0x28 /Applications/microchip/mplabc32/v2.00/bin/../lib/gcc/pic32mx/4.5.1/../../../../pic32mx/lib/libmchp_peripheral_32MX795F512L.a(int_enable_mv_int_lib.o)
 .debug_frame   0x0000039c       0xa0 /Applications/microchip/mplabc32/v2.00/bin/../lib/gcc/pic32mx/4.5.1/../../../../pic32mx/lib/libmchp_peripheral_32MX795F512L.a(int_tbl_lib.o)
 .debug_frame   0x0000043c       0x20 /Applications/microchip/mplabc32/v2.00/bin/../lib/gcc/pic32mx/4.5.1/../../../../pic32mx/lib/libmchp_peripheral_32MX795F512L.a(I2CAcknowledgeByte.o)
 .debug_frame   0x0000045c       0x20 /Applications/microchip/mplabc32/v2.00/bin/../lib/gcc/pic32mx/4.5.1/../../../../pic32mx/lib/libmchp_peripheral_32MX795F512L.a(I2CByteWasAcknowledged.o)
 .debug_frame   0x0000047c       0x20 /Applications/microchip/mplabc32/v2.00/bin/../lib/gcc/pic32mx/4.5.1/../../../../pic32mx/lib/libmchp_peripheral_32MX795F512L.a(I2CGetByte.o)
 .debug_frame   0x0000049c       0x20 /Applications/microchip/mplabc32/v2.00/bin/../lib/gcc/pic32mx/4.5.1/../../../../pic32mx/lib/libmchp_peripheral_32MX795F512L.a(I2CReceiverEnable.o)
 .debug_frame   0x000004bc       0x20 /Applications/microchip/mplabc32/v2.00/bin/../lib/gcc/pic32mx/4.5.1/../../../../pic32mx/lib/libmchp_peripheral_32MX795F512L.a(I2CRepeatStart.o)
 .debug_frame   0x000004dc       0x20 /Applications/microchip/mplabc32/v2.00/bin/../lib/gcc/pic32mx/4.5.1/../../../../pic32mx/lib/libmchp_peripheral_32MX795F512L.a(I2CSendByte.o)
 .debug_frame   0x000004fc       0x20 /Applications/microchip/mplabc32/v2.00/bin/../lib/gcc/pic32mx/4.5.1/../../../../pic32mx/lib/libmchp_peripheral_32MX795F512L.a(I2CStart.o)
 .debug_frame   0x0000051c       0x20 /Applications/microchip/mplabc32/v2.00/bin/../lib/gcc/pic32mx/4.5.1/../../../../pic32mx/lib/libmchp_peripheral_32MX795F512L.a(I2CStop.o)
 .debug_frame   0x0000053c       0x20 /Applications/microchip/mplabc32/v2.00/bin/../lib/gcc/pic32mx/4.5.1/../../../../pic32mx/lib/libmchp_peripheral_32MX795F512L.a(I2CTransmissionHasCompleted.o)
 .debug_frame   0x0000055c       0x2c /Applications/microchip/mplabc32/v2.00/bin/../lib/gcc/pic32mx/4.5.1/libgcc.a(_floatundisf.o)
 .debug_frame   0x00000588       0x20 /Applications/microchip/mplabc32/v2.00/bin/../lib/gcc/pic32mx/4.5.1/libgcc.a(_udivdi3.o)
 .debug_frame   0x000005a8       0x20 /Applications/microchip/mplabc32/v2.00/bin/../lib/gcc/pic32mx/4.5.1/libgcc.a(_umoddi3.o)
 .debug_frame   0x000005c8       0x28 /Applications/microchip/mplabc32/v2.00/bin/../lib/gcc/pic32mx/4.5.1/libgcc.a(floatunsisf.o)

.debug_str      0x00000000        0x0
 *(.debug_str)
 .debug_str     0x00000000        0x0 /Applications/microchip/mplabc32/v2.00/bin/../lib/gcc/pic32mx/4.5.1/../../../../pic32mx/lib/libc.a(ctypef.o)
 .debug_str     0x00000000        0x0 /Applications/microchip/mplabc32/v2.00/bin/../lib/gcc/pic32mx/4.5.1/../../../../pic32mx/lib/libc.a(sprintf_fF.eo)
 .debug_str     0x00000000        0x0 /Applications/microchip/mplabc32/v2.00/bin/../lib/gcc/pic32mx/4.5.1/../../../../pic32mx/lib/libc.a(default-general-exception-handler.o)
 .debug_str     0x00000000        0x0 /Applications/microchip/mplabc32/v2.00/bin/../lib/gcc/pic32mx/4.5.1/../../../../pic32mx/lib/libc.a(default-bootstrap-exception-handler.o)
 .debug_str     0x00000000        0x0 /Applications/microchip/mplabc32/v2.00/bin/../lib/gcc/pic32mx/4.5.1/../../../../pic32mx/lib/libc.a(default-on-reset.o)
 .debug_str     0x00000000        0x0 /Applications/microchip/mplabc32/v2.00/bin/../lib/gcc/pic32mx/4.5.1/../../../../pic32mx/lib/libc.a(default-on-bootstrap.o)
 .debug_str     0x00000000        0x0 /Applications/microchip/mplabc32/v2.00/bin/../lib/gcc/pic32mx/4.5.1/../../../../pic32mx/lib/libc.a(ctype.o)
 .debug_str     0x00000000        0x0 /Applications/microchip/mplabc32/v2.00/bin/../lib/gcc/pic32mx/4.5.1/../../../../pic32mx/lib/libc.a(doprnt_fF.eo)
 .debug_str     0x00000000        0x0 /Applications/microchip/mplabc32/v2.00/bin/../lib/gcc/pic32mx/4.5.1/../../../../pic32mx/lib/libc.a(_fputc_simple.o)
 .debug_str     0x00000000        0x0 /Applications/microchip/mplabc32/v2.00/bin/../lib/gcc/pic32mx/4.5.1/../../../../pic32mx/lib/libc.a(powers.o)
 .debug_str     0x00000000        0x0 /Applications/microchip/mplabc32/v2.00/bin/../lib/gcc/pic32mx/4.5.1/../../../../pic32mx/lib/libc.a(write.o)
 .debug_str     0x00000000        0x0 /Applications/microchip/mplabc32/v2.00/bin/../lib/gcc/pic32mx/4.5.1/../../../../pic32mx/lib/libc.a(_iob.o)
 .debug_str     0x00000000        0x0 /Applications/microchip/mplabc32/v2.00/bin/../lib/gcc/pic32mx/4.5.1/../../../../pic32mx/lib/libc.a(_flsbuf_simple.o)
 .debug_str     0x00000000        0x0 /Applications/microchip/mplabc32/v2.00/bin/../lib/gcc/pic32mx/4.5.1/../../../../pic32mx/lib/libc.a(_mon_putc.o)
 .debug_str     0x00000000        0x0 /Applications/microchip/mplabc32/v2.00/bin/../lib/gcc/pic32mx/4.5.1/../../../../pic32mx/lib/libc.a(c32_uart.o)
 .debug_str     0x00000000        0x0 /Applications/microchip/mplabc32/v2.00/bin/../lib/gcc/pic32mx/4.5.1/../../../../pic32mx/lib/libm.a(w_asinf.o)
 .debug_str     0x00000000        0x0 /Applications/microchip/mplabc32/v2.00/bin/../lib/gcc/pic32mx/4.5.1/../../../../pic32mx/lib/libm.a(w_sqrtf.o)
 .debug_str     0x00000000        0x0 /Applications/microchip/mplabc32/v2.00/bin/../lib/gcc/pic32mx/4.5.1/../../../../pic32mx/lib/libm.a(s_lib_ver.o)
 .debug_str     0x00000000        0x0 /Applications/microchip/mplabc32/v2.00/bin/../lib/gcc/pic32mx/4.5.1/../../../../pic32mx/lib/libe.a(_floatdisf.o)
 .debug_str     0x00000000        0x0 /Applications/microchip/mplabc32/v2.00/bin/../lib/gcc/pic32mx/4.5.1/../../../../pic32mx/lib/libmchp_peripheral_32MX795F512L.a(int_configure_system_lib.o)
 .debug_str     0x00000000        0x0 /Applications/microchip/mplabc32/v2.00/bin/../lib/gcc/pic32mx/4.5.1/../../../../pic32mx/lib/libmchp_peripheral_32MX795F512L.a(int_enable_interrupts_lib.o)
 .debug_str     0x00000000        0x0 /Applications/microchip/mplabc32/v2.00/bin/../lib/gcc/pic32mx/4.5.1/../../../../pic32mx/lib/libmchp_peripheral_32MX795F512L.a(int_enable_mv_int_lib.o)
 .debug_str     0x00000000        0x0 /Applications/microchip/mplabc32/v2.00/bin/../lib/gcc/pic32mx/4.5.1/../../../../pic32mx/lib/libmchp_peripheral_32MX795F512L.a(int_tbl_lib.o)
 .debug_str     0x00000000        0x0 /Applications/microchip/mplabc32/v2.00/bin/../lib/gcc/pic32mx/4.5.1/../../../../pic32mx/lib/libmchp_peripheral_32MX795F512L.a(I2CAcknowledgeByte.o)
 .debug_str     0x00000000        0x0 /Applications/microchip/mplabc32/v2.00/bin/../lib/gcc/pic32mx/4.5.1/../../../../pic32mx/lib/libmchp_peripheral_32MX795F512L.a(I2CByteWasAcknowledged.o)
 .debug_str     0x00000000        0x0 /Applications/microchip/mplabc32/v2.00/bin/../lib/gcc/pic32mx/4.5.1/../../../../pic32mx/lib/libmchp_peripheral_32MX795F512L.a(I2CGetByte.o)
 .debug_str     0x00000000        0x0 /Applications/microchip/mplabc32/v2.00/bin/../lib/gcc/pic32mx/4.5.1/../../../../pic32mx/lib/libmchp_peripheral_32MX795F512L.a(I2CReceiverEnable.o)
 .debug_str     0x00000000        0x0 /Applications/microchip/mplabc32/v2.00/bin/../lib/gcc/pic32mx/4.5.1/../../../../pic32mx/lib/libmchp_peripheral_32MX795F512L.a(I2CRepeatStart.o)
 .debug_str     0x00000000        0x0 /Applications/microchip/mplabc32/v2.00/bin/../lib/gcc/pic32mx/4.5.1/../../../../pic32mx/lib/libmchp_peripheral_32MX795F512L.a(I2CSendByte.o)
 .debug_str     0x00000000        0x0 /Applications/microchip/mplabc32/v2.00/bin/../lib/gcc/pic32mx/4.5.1/../../../../pic32mx/lib/libmchp_peripheral_32MX795F512L.a(I2CStart.o)
 .debug_str     0x00000000        0x0 /Applications/microchip/mplabc32/v2.00/bin/../lib/gcc/pic32mx/4.5.1/../../../../pic32mx/lib/libmchp_peripheral_32MX795F512L.a(I2CStop.o)
 .debug_str     0x00000000        0x0 /Applications/microchip/mplabc32/v2.00/bin/../lib/gcc/pic32mx/4.5.1/../../../../pic32mx/lib/libmchp_peripheral_32MX795F512L.a(I2CTransmissionHasCompleted.o)
 .debug_str     0x00000000        0x0 /Applications/microchip/mplabc32/v2.00/bin/../lib/gcc/pic32mx/4.5.1/../../../../pic32mx/lib/libmchp_peripheral_32MX795F512L.a(I2CPrivate.o)
 .debug_str     0x00000000        0x0 /Applications/microchip/mplabc32/v2.00/bin/../lib/gcc/pic32mx/4.5.1/../../../../pic32mx/lib/libc.a(errno.o)
 .debug_str     0x00000000        0x0 /Applications/microchip/mplabc32/v2.00/bin/../lib/gcc/pic32mx/4.5.1/libgcc.a(_floatundisf.o)
 .debug_str     0x00000000        0x0 /Applications/microchip/mplabc32/v2.00/bin/../lib/gcc/pic32mx/4.5.1/libgcc.a(_udivdi3.o)
 .debug_str     0x00000000        0x0 /Applications/microchip/mplabc32/v2.00/bin/../lib/gcc/pic32mx/4.5.1/libgcc.a(_umoddi3.o)
 .debug_str     0x00000000        0x0 /Applications/microchip/mplabc32/v2.00/bin/../lib/gcc/pic32mx/4.5.1/libgcc.a(floatunsisf.o)

.debug_loc      0x00000000     0x1595
 *(.debug_loc)
 .debug_loc     0x00000000       0xc9 /Applications/microchip/mplabc32/v2.00/bin/../lib/gcc/pic32mx/4.5.1/libgcc.a(_floatundisf.o)
 .debug_loc     0x000000c9      0xa47 /Applications/microchip/mplabc32/v2.00/bin/../lib/gcc/pic32mx/4.5.1/libgcc.a(_udivdi3.o)
 .debug_loc     0x00000b10      0xa1d /Applications/microchip/mplabc32/v2.00/bin/../lib/gcc/pic32mx/4.5.1/libgcc.a(_umoddi3.o)
 .debug_loc     0x0000152d       0x68 /Applications/microchip/mplabc32/v2.00/bin/../lib/gcc/pic32mx/4.5.1/libgcc.a(floatunsisf.o)

.debug_macinfo
 *(.debug_macinfo)

.debug_weaknames
 *(.debug_weaknames)

.debug_funcnames
 *(.debug_funcnames)

.debug_typenames
 *(.debug_typenames)

.debug_varnames
 *(.debug_varnames)

.debug_pubtypes
                0x00000000      0x126
 *(.debug_pubtypes)
 .debug_pubtypes
                0x00000000       0x40 /Applications/microchip/mplabc32/v2.00/bin/../lib/gcc/pic32mx/4.5.1/libgcc.a(_floatundisf.o)
 .debug_pubtypes
                0x00000040       0x59 /Applications/microchip/mplabc32/v2.00/bin/../lib/gcc/pic32mx/4.5.1/libgcc.a(_udivdi3.o)
 .debug_pubtypes
                0x00000099       0x59 /Applications/microchip/mplabc32/v2.00/bin/../lib/gcc/pic32mx/4.5.1/libgcc.a(_umoddi3.o)
 .debug_pubtypes
                0x000000f2       0x34 /Applications/microchip/mplabc32/v2.00/bin/../lib/gcc/pic32mx/4.5.1/libgcc.a(floatunsisf.o)

.debug_ranges   0x00000000      0x430
 *(.debug_ranges)
 .debug_ranges  0x00000000       0x90 /Applications/microchip/mplabc32/v2.00/bin/../lib/gcc/pic32mx/4.5.1/../../../../pic32mx/lib/libc.a(ctypef.o)
 .debug_ranges  0x00000090       0x10 /Applications/microchip/mplabc32/v2.00/bin/../lib/gcc/pic32mx/4.5.1/../../../../pic32mx/lib/libc.a(sprintf_fF.eo)
 .debug_ranges  0x000000a0       0x10 /Applications/microchip/mplabc32/v2.00/bin/../lib/gcc/pic32mx/4.5.1/../../../../pic32mx/lib/libc.a(default-general-exception-handler.o)
 .debug_ranges  0x000000b0       0x10 /Applications/microchip/mplabc32/v2.00/bin/../lib/gcc/pic32mx/4.5.1/../../../../pic32mx/lib/libc.a(default-bootstrap-exception-handler.o)
 .debug_ranges  0x000000c0       0x10 /Applications/microchip/mplabc32/v2.00/bin/../lib/gcc/pic32mx/4.5.1/../../../../pic32mx/lib/libc.a(default-on-reset.o)
 .debug_ranges  0x000000d0       0x10 /Applications/microchip/mplabc32/v2.00/bin/../lib/gcc/pic32mx/4.5.1/../../../../pic32mx/lib/libc.a(default-on-bootstrap.o)
 .debug_ranges  0x000000e0       0x18 /Applications/microchip/mplabc32/v2.00/bin/../lib/gcc/pic32mx/4.5.1/../../../../pic32mx/lib/libc.a(doprnt_fF.eo)
 .debug_ranges  0x000000f8       0x10 /Applications/microchip/mplabc32/v2.00/bin/../lib/gcc/pic32mx/4.5.1/../../../../pic32mx/lib/libc.a(_fputc_simple.o)
 .debug_ranges  0x00000108       0x10 /Applications/microchip/mplabc32/v2.00/bin/../lib/gcc/pic32mx/4.5.1/../../../../pic32mx/lib/libc.a(write.o)
 .debug_ranges  0x00000118       0x10 /Applications/microchip/mplabc32/v2.00/bin/../lib/gcc/pic32mx/4.5.1/../../../../pic32mx/lib/libc.a(_flsbuf_simple.o)
 .debug_ranges  0x00000128       0x10 /Applications/microchip/mplabc32/v2.00/bin/../lib/gcc/pic32mx/4.5.1/../../../../pic32mx/lib/libc.a(_mon_putc.o)
 .debug_ranges  0x00000138       0x10 /Applications/microchip/mplabc32/v2.00/bin/../lib/gcc/pic32mx/4.5.1/../../../../pic32mx/lib/libm.a(w_asinf.o)
 .debug_ranges  0x00000148       0x10 /Applications/microchip/mplabc32/v2.00/bin/../lib/gcc/pic32mx/4.5.1/../../../../pic32mx/lib/libm.a(w_sqrtf.o)
 .debug_ranges  0x00000158       0x10 /Applications/microchip/mplabc32/v2.00/bin/../lib/gcc/pic32mx/4.5.1/../../../../pic32mx/lib/libe.a(_floatdisf.o)
 .debug_ranges  0x00000168       0x10 /Applications/microchip/mplabc32/v2.00/bin/../lib/gcc/pic32mx/4.5.1/../../../../pic32mx/lib/libmchp_peripheral_32MX795F512L.a(int_configure_system_lib.o)
 .debug_ranges  0x00000178       0x10 /Applications/microchip/mplabc32/v2.00/bin/../lib/gcc/pic32mx/4.5.1/../../../../pic32mx/lib/libmchp_peripheral_32MX795F512L.a(int_enable_interrupts_lib.o)
 .debug_ranges  0x00000188       0x10 /Applications/microchip/mplabc32/v2.00/bin/../lib/gcc/pic32mx/4.5.1/../../../../pic32mx/lib/libmchp_peripheral_32MX795F512L.a(int_enable_mv_int_lib.o)
 .debug_ranges  0x00000198       0x50 /Applications/microchip/mplabc32/v2.00/bin/../lib/gcc/pic32mx/4.5.1/../../../../pic32mx/lib/libmchp_peripheral_32MX795F512L.a(int_tbl_lib.o)
 .debug_ranges  0x000001e8       0x10 /Applications/microchip/mplabc32/v2.00/bin/../lib/gcc/pic32mx/4.5.1/../../../../pic32mx/lib/libmchp_peripheral_32MX795F512L.a(I2CAcknowledgeByte.o)
 .debug_ranges  0x000001f8       0x10 /Applications/microchip/mplabc32/v2.00/bin/../lib/gcc/pic32mx/4.5.1/../../../../pic32mx/lib/libmchp_peripheral_32MX795F512L.a(I2CByteWasAcknowledged.o)
 .debug_ranges  0x00000208       0x10 /Applications/microchip/mplabc32/v2.00/bin/../lib/gcc/pic32mx/4.5.1/../../../../pic32mx/lib/libmchp_peripheral_32MX795F512L.a(I2CGetByte.o)
 .debug_ranges  0x00000218       0x10 /Applications/microchip/mplabc32/v2.00/bin/../lib/gcc/pic32mx/4.5.1/../../../../pic32mx/lib/libmchp_peripheral_32MX795F512L.a(I2CReceiverEnable.o)
 .debug_ranges  0x00000228       0x10 /Applications/microchip/mplabc32/v2.00/bin/../lib/gcc/pic32mx/4.5.1/../../../../pic32mx/lib/libmchp_peripheral_32MX795F512L.a(I2CRepeatStart.o)
 .debug_ranges  0x00000238       0x10 /Applications/microchip/mplabc32/v2.00/bin/../lib/gcc/pic32mx/4.5.1/../../../../pic32mx/lib/libmchp_peripheral_32MX795F512L.a(I2CSendByte.o)
 .debug_ranges  0x00000248       0x10 /Applications/microchip/mplabc32/v2.00/bin/../lib/gcc/pic32mx/4.5.1/../../../../pic32mx/lib/libmchp_peripheral_32MX795F512L.a(I2CStart.o)
 .debug_ranges  0x00000258       0x10 /Applications/microchip/mplabc32/v2.00/bin/../lib/gcc/pic32mx/4.5.1/../../../../pic32mx/lib/libmchp_peripheral_32MX795F512L.a(I2CStop.o)
 .debug_ranges  0x00000268       0x10 /Applications/microchip/mplabc32/v2.00/bin/../lib/gcc/pic32mx/4.5.1/../../../../pic32mx/lib/libmchp_peripheral_32MX795F512L.a(I2CTransmissionHasCompleted.o)
 .debug_ranges  0x00000278       0xc0 /Applications/microchip/mplabc32/v2.00/bin/../lib/gcc/pic32mx/4.5.1/libgcc.a(_udivdi3.o)
 .debug_ranges  0x00000338       0xf8 /Applications/microchip/mplabc32/v2.00/bin/../lib/gcc/pic32mx/4.5.1/libgcc.a(_umoddi3.o)

.gnu.attributes
                0x00000000       0x10
 *(.gnu.attributes)
 .gnu.attributes
                0x00000000       0x10 build/default/production/_ext/1472/Adc-Gruppio.o
 .gnu.attributes
                0x00000010       0x10 build/default/production/_ext/1472/Adxl345.o
 .gnu.attributes
                0x00000020       0x10 build/default/production/_ext/1472/App.o
 .gnu.attributes
                0x00000030       0x10 build/default/production/_ext/1472/Filter.o
 .gnu.attributes
                0x00000040       0x10 build/default/production/_ext/1472/Grapichs.o
 .gnu.attributes
                0x00000050       0x10 build/default/production/_ext/1472/HMC6352.o
 .gnu.attributes
                0x00000060       0x10 build/default/production/_ext/1472/I2C - Gruppio.o
 .gnu.attributes
                0x00000070       0x10 build/default/production/_ext/1472/IGruppioV2.o
 .gnu.attributes
                0x00000080       0x10 build/default/production/_ext/1472/ITG3200.o
 .gnu.attributes
                0x00000090       0x10 build/default/production/_ext/1472/MLX90614.o
 .gnu.attributes
                0x000000a0       0x10 build/default/production/_ext/1472/Pic32mx7.o
 .gnu.attributes
                0x000000b0       0x10 build/default/production/_ext/1472/PicasoSGC.o
 .gnu.attributes
                0x000000c0       0x10 build/default/production/_ext/1472/Timer-PWM-Gruppio.o
 .gnu.attributes
                0x000000d0       0x10 build/default/production/_ext/1472/Uart-Gruppio.o
 .gnu.attributes
                0x000000e0       0x10 /Applications/microchip/mplabc32/v2.00/bin/../lib/gcc/pic32mx/4.5.1/../../../../pic32mx/lib/libc.a(ctypef.o)
 .gnu.attributes
                0x000000f0       0x10 /Applications/microchip/mplabc32/v2.00/bin/../lib/gcc/pic32mx/4.5.1/../../../../pic32mx/lib/libc.a(sprintf_fF.eo)
 .gnu.attributes
                0x00000100       0x10 /Applications/microchip/mplabc32/v2.00/bin/../lib/gcc/pic32mx/4.5.1/../../../../pic32mx/lib/libc.a(default-general-exception-handler.o)
 .gnu.attributes
                0x00000110       0x10 /Applications/microchip/mplabc32/v2.00/bin/../lib/gcc/pic32mx/4.5.1/../../../../pic32mx/lib/libc.a(default-bootstrap-exception-handler.o)
 .gnu.attributes
                0x00000120       0x10 /Applications/microchip/mplabc32/v2.00/bin/../lib/gcc/pic32mx/4.5.1/../../../../pic32mx/lib/libc.a(default-on-reset.o)
 .gnu.attributes
                0x00000130       0x10 /Applications/microchip/mplabc32/v2.00/bin/../lib/gcc/pic32mx/4.5.1/../../../../pic32mx/lib/libc.a(default-on-bootstrap.o)
 .gnu.attributes
                0x00000140       0x10 /Applications/microchip/mplabc32/v2.00/bin/../lib/gcc/pic32mx/4.5.1/../../../../pic32mx/lib/libc.a(ctype.o)
 .gnu.attributes
                0x00000150       0x10 /Applications/microchip/mplabc32/v2.00/bin/../lib/gcc/pic32mx/4.5.1/../../../../pic32mx/lib/libc.a(doprnt_fF.eo)
 .gnu.attributes
                0x00000160       0x10 /Applications/microchip/mplabc32/v2.00/bin/../lib/gcc/pic32mx/4.5.1/../../../../pic32mx/lib/libc.a(_fputc_simple.o)
 .gnu.attributes
                0x00000170       0x10 /Applications/microchip/mplabc32/v2.00/bin/../lib/gcc/pic32mx/4.5.1/../../../../pic32mx/lib/libc.a(powers.o)
 .gnu.attributes
                0x00000180       0x10 /Applications/microchip/mplabc32/v2.00/bin/../lib/gcc/pic32mx/4.5.1/../../../../pic32mx/lib/libc.a(write.o)
 .gnu.attributes
                0x00000190       0x10 /Applications/microchip/mplabc32/v2.00/bin/../lib/gcc/pic32mx/4.5.1/../../../../pic32mx/lib/libc.a(_iob.o)
 .gnu.attributes
                0x000001a0       0x10 /Applications/microchip/mplabc32/v2.00/bin/../lib/gcc/pic32mx/4.5.1/../../../../pic32mx/lib/libc.a(_flsbuf_simple.o)
 .gnu.attributes
                0x000001b0       0x10 /Applications/microchip/mplabc32/v2.00/bin/../lib/gcc/pic32mx/4.5.1/../../../../pic32mx/lib/libc.a(_mon_putc.o)
 .gnu.attributes
                0x000001c0       0x10 /Applications/microchip/mplabc32/v2.00/bin/../lib/gcc/pic32mx/4.5.1/../../../../pic32mx/lib/libc.a(c32_uart.o)
 .gnu.attributes
                0x000001d0       0x10 /Applications/microchip/mplabc32/v2.00/bin/../lib/gcc/pic32mx/4.5.1/../../../../pic32mx/lib/libm.a(w_asinf.o)
 .gnu.attributes
                0x000001e0       0x10 /Applications/microchip/mplabc32/v2.00/bin/../lib/gcc/pic32mx/4.5.1/../../../../pic32mx/lib/libm.a(w_sqrtf.o)
 .gnu.attributes
                0x000001f0       0x10 /Applications/microchip/mplabc32/v2.00/bin/../lib/gcc/pic32mx/4.5.1/../../../../pic32mx/lib/libm.a(s_lib_ver.o)
 .gnu.attributes
                0x00000200       0x10 /Applications/microchip/mplabc32/v2.00/bin/../lib/gcc/pic32mx/4.5.1/../../../../pic32mx/lib/libe.a(_floatdisf.o)
 .gnu.attributes
                0x00000210       0x10 /Applications/microchip/mplabc32/v2.00/bin/../lib/gcc/pic32mx/4.5.1/../../../../pic32mx/lib/libmchp_peripheral_32MX795F512L.a(int_configure_system_lib.o)
 .gnu.attributes
                0x00000220       0x10 /Applications/microchip/mplabc32/v2.00/bin/../lib/gcc/pic32mx/4.5.1/../../../../pic32mx/lib/libmchp_peripheral_32MX795F512L.a(int_enable_interrupts_lib.o)
 .gnu.attributes
                0x00000230       0x10 /Applications/microchip/mplabc32/v2.00/bin/../lib/gcc/pic32mx/4.5.1/../../../../pic32mx/lib/libmchp_peripheral_32MX795F512L.a(int_enable_mv_int_lib.o)
 .gnu.attributes
                0x00000240       0x10 /Applications/microchip/mplabc32/v2.00/bin/../lib/gcc/pic32mx/4.5.1/../../../../pic32mx/lib/libmchp_peripheral_32MX795F512L.a(int_tbl_lib.o)
 .gnu.attributes
                0x00000250       0x10 /Applications/microchip/mplabc32/v2.00/bin/../lib/gcc/pic32mx/4.5.1/../../../../pic32mx/lib/libmchp_peripheral_32MX795F512L.a(I2CAcknowledgeByte.o)
 .gnu.attributes
                0x00000260       0x10 /Applications/microchip/mplabc32/v2.00/bin/../lib/gcc/pic32mx/4.5.1/../../../../pic32mx/lib/libmchp_peripheral_32MX795F512L.a(I2CByteWasAcknowledged.o)
 .gnu.attributes
                0x00000270       0x10 /Applications/microchip/mplabc32/v2.00/bin/../lib/gcc/pic32mx/4.5.1/../../../../pic32mx/lib/libmchp_peripheral_32MX795F512L.a(I2CGetByte.o)
 .gnu.attributes
                0x00000280       0x10 /Applications/microchip/mplabc32/v2.00/bin/../lib/gcc/pic32mx/4.5.1/../../../../pic32mx/lib/libmchp_peripheral_32MX795F512L.a(I2CReceiverEnable.o)
 .gnu.attributes
                0x00000290       0x10 /Applications/microchip/mplabc32/v2.00/bin/../lib/gcc/pic32mx/4.5.1/../../../../pic32mx/lib/libmchp_peripheral_32MX795F512L.a(I2CRepeatStart.o)
 .gnu.attributes
                0x000002a0       0x10 /Applications/microchip/mplabc32/v2.00/bin/../lib/gcc/pic32mx/4.5.1/../../../../pic32mx/lib/libmchp_peripheral_32MX795F512L.a(I2CSendByte.o)
 .gnu.attributes
                0x000002b0       0x10 /Applications/microchip/mplabc32/v2.00/bin/../lib/gcc/pic32mx/4.5.1/../../../../pic32mx/lib/libmchp_peripheral_32MX795F512L.a(I2CStart.o)
 .gnu.attributes
                0x000002c0       0x10 /Applications/microchip/mplabc32/v2.00/bin/../lib/gcc/pic32mx/4.5.1/../../../../pic32mx/lib/libmchp_peripheral_32MX795F512L.a(I2CStop.o)
 .gnu.attributes
                0x000002d0       0x10 /Applications/microchip/mplabc32/v2.00/bin/../lib/gcc/pic32mx/4.5.1/../../../../pic32mx/lib/libmchp_peripheral_32MX795F512L.a(I2CTransmissionHasCompleted.o)
 .gnu.attributes
                0x000002e0       0x10 /Applications/microchip/mplabc32/v2.00/bin/../lib/gcc/pic32mx/4.5.1/../../../../pic32mx/lib/libmchp_peripheral_32MX795F512L.a(I2CPrivate.o)
 .gnu.attributes
                0x000002f0       0x10 /Applications/microchip/mplabc32/v2.00/bin/../lib/gcc/pic32mx/4.5.1/../../../../pic32mx/lib/libc.a(errno.o)
 .gnu.attributes
                0x00000300       0x10 /Applications/microchip/mplabc32/v2.00/bin/../lib/gcc/pic32mx/4.5.1/libgcc.a(_floatundisf.o)
 .gnu.attributes
                0x00000310       0x10 /Applications/microchip/mplabc32/v2.00/bin/../lib/gcc/pic32mx/4.5.1/libgcc.a(_udivdi3.o)
 .gnu.attributes
                0x00000320       0x10 /Applications/microchip/mplabc32/v2.00/bin/../lib/gcc/pic32mx/4.5.1/libgcc.a(_umoddi3.o)
 .gnu.attributes
                0x00000330       0x10 /Applications/microchip/mplabc32/v2.00/bin/../lib/gcc/pic32mx/4.5.1/libgcc.a(floatunsisf.o)
OUTPUT(dist/default/production/IGruppioV2.X.production.elf elf32-tradlittlemips)
LOAD stack
LOAD data_init

.stack          0xa0000470      0x400
 .stack         0xa0000470      0x400 stack

.data           0xa0000270      0x100
 .data          0xa0000270      0x100 /Applications/microchip/mplabc32/v2.00/bin/../lib/gcc/pic32mx/4.5.1/../../../../pic32mx/lib/libm.a(fparc32.o)

.data._iob      0xa0000370       0xa0
 .data._iob     0xa0000370       0xa0 /Applications/microchip/mplabc32/v2.00/bin/../lib/gcc/pic32mx/4.5.1/../../../../pic32mx/lib/libc.a(_iob.o)
                0xa0000370                _iob

.bss._sibuf     0xa0000410       0x20
 .bss._sibuf    0xa0000410       0x20 /Applications/microchip/mplabc32/v2.00/bin/../lib/gcc/pic32mx/4.5.1/../../../../pic32mx/lib/libc.a(_iob.o)
                0xa0000410                _sibuf

.bss._sobuf     0xa0000430       0x20
 .bss._sobuf    0xa0000430       0x20 /Applications/microchip/mplabc32/v2.00/bin/../lib/gcc/pic32mx/4.5.1/../../../../pic32mx/lib/libc.a(_iob.o)
                0xa0000430                _sobuf

.data.math_errhandling_flag
                0xa0000450        0x4
 .data.math_errhandling_flag
                0xa0000450        0x4 /Applications/microchip/mplabc32/v2.00/bin/../lib/gcc/pic32mx/4.5.1/../../../../pic32mx/lib/libm.a(s_lib_ver.o)
                0xa0000450                math_errhandling

.bss%z1         0x00000000        0x0
 .bss           0x00000000        0x0 /Applications/microchip/mplabc32/v2.00/bin/../lib/gcc/pic32mx/4.5.1/../../../../pic32mx/lib/./proc/32MX795F512L/processor.o

.data%z2        0x00000000        0x0
 .data          0x00000000        0x0 /Applications/microchip/mplabc32/v2.00/bin/../lib/gcc/pic32mx/4.5.1/../../../../pic32mx/lib/./proc/32MX795F512L/processor.o

.mdebug.abi32%z3
                0x00000000        0x0
 .mdebug.abi32  0x00000000        0x0 /Applications/microchip/mplabc32/v2.00/bin/../lib/gcc/pic32mx/4.5.1/libgcc.a(floatunsisf.o)

.bss%z4         0x00000000        0x0
 .bss           0x00000000        0x0 /Applications/microchip/mplabc32/v2.00/bin/../lib/gcc/pic32mx/4.5.1/libgcc.a(floatunsisf.o)

.data%z5        0x00000000        0x0
 .data          0x00000000        0x0 /Applications/microchip/mplabc32/v2.00/bin/../lib/gcc/pic32mx/4.5.1/libgcc.a(floatunsisf.o)

.mdebug.abi32%z6
                0x00000000        0x0
 .mdebug.abi32  0x00000000        0x0 /Applications/microchip/mplabc32/v2.00/bin/../lib/gcc/pic32mx/4.5.1/libgcc.a(_umoddi3.o)

.bss%z7         0x00000000        0x0
 .bss           0x00000000        0x0 /Applications/microchip/mplabc32/v2.00/bin/../lib/gcc/pic32mx/4.5.1/libgcc.a(_umoddi3.o)

.data%z8        0x00000000        0x0
 .data          0x00000000        0x0 /Applications/microchip/mplabc32/v2.00/bin/../lib/gcc/pic32mx/4.5.1/libgcc.a(_umoddi3.o)

.mdebug.abi32%z9
                0x00000000        0x0
 .mdebug.abi32  0x00000000        0x0 /Applications/microchip/mplabc32/v2.00/bin/../lib/gcc/pic32mx/4.5.1/libgcc.a(_udivdi3.o)

.bss%z10        0x00000000        0x0
 .bss           0x00000000        0x0 /Applications/microchip/mplabc32/v2.00/bin/../lib/gcc/pic32mx/4.5.1/libgcc.a(_udivdi3.o)

.data%z11       0x00000000        0x0
 .data          0x00000000        0x0 /Applications/microchip/mplabc32/v2.00/bin/../lib/gcc/pic32mx/4.5.1/libgcc.a(_udivdi3.o)

.mdebug.abi32%z12
                0x00000000        0x0
 .mdebug.abi32  0x00000000        0x0 /Applications/microchip/mplabc32/v2.00/bin/../lib/gcc/pic32mx/4.5.1/libgcc.a(_floatundisf.o)

.bss%z13        0x00000000        0x0
 .bss           0x00000000        0x0 /Applications/microchip/mplabc32/v2.00/bin/../lib/gcc/pic32mx/4.5.1/libgcc.a(_floatundisf.o)

.data%z14       0x00000000        0x0
 .data          0x00000000        0x0 /Applications/microchip/mplabc32/v2.00/bin/../lib/gcc/pic32mx/4.5.1/libgcc.a(_floatundisf.o)

.mdebug.abi32%z15
                0x00000000        0x0
 .mdebug.abi32  0x00000000        0x0 /Applications/microchip/mplabc32/v2.00/bin/../lib/gcc/pic32mx/4.5.1/../../../../pic32mx/lib/libc.a(errno.o)

.bss%z16        0x00000000        0x0
 .bss           0x00000000        0x0 /Applications/microchip/mplabc32/v2.00/bin/../lib/gcc/pic32mx/4.5.1/../../../../pic32mx/lib/libc.a(errno.o)

.data%z17       0x00000000        0x0
 .data          0x00000000        0x0 /Applications/microchip/mplabc32/v2.00/bin/../lib/gcc/pic32mx/4.5.1/../../../../pic32mx/lib/libc.a(errno.o)

.mdebug.abi32%z18
                0x00000000        0x0
 .mdebug.abi32  0x00000000        0x0 /Applications/microchip/mplabc32/v2.00/bin/../lib/gcc/pic32mx/4.5.1/../../../../pic32mx/lib/libmchp_peripheral_32MX795F512L.a(I2CPrivate.o)

.bss%z19        0x00000000        0x0
 .bss           0x00000000        0x0 /Applications/microchip/mplabc32/v2.00/bin/../lib/gcc/pic32mx/4.5.1/../../../../pic32mx/lib/libmchp_peripheral_32MX795F512L.a(I2CPrivate.o)

.data%z20       0x00000000        0x0
 .data          0x00000000        0x0 /Applications/microchip/mplabc32/v2.00/bin/../lib/gcc/pic32mx/4.5.1/../../../../pic32mx/lib/libmchp_peripheral_32MX795F512L.a(I2CPrivate.o)

.mdebug.abi32%z21
                0x00000000        0x0
 .mdebug.abi32  0x00000000        0x0 /Applications/microchip/mplabc32/v2.00/bin/../lib/gcc/pic32mx/4.5.1/../../../../pic32mx/lib/libmchp_peripheral_32MX795F512L.a(I2CTransmissionHasCompleted.o)

.bss%z22        0x00000000        0x0
 .bss           0x00000000        0x0 /Applications/microchip/mplabc32/v2.00/bin/../lib/gcc/pic32mx/4.5.1/../../../../pic32mx/lib/libmchp_peripheral_32MX795F512L.a(I2CTransmissionHasCompleted.o)

.data%z23       0x00000000        0x0
 .data          0x00000000        0x0 /Applications/microchip/mplabc32/v2.00/bin/../lib/gcc/pic32mx/4.5.1/../../../../pic32mx/lib/libmchp_peripheral_32MX795F512L.a(I2CTransmissionHasCompleted.o)

.mdebug.abi32%z24
                0x00000000        0x0
 .mdebug.abi32  0x00000000        0x0 /Applications/microchip/mplabc32/v2.00/bin/../lib/gcc/pic32mx/4.5.1/../../../../pic32mx/lib/libmchp_peripheral_32MX795F512L.a(I2CStop.o)

.bss%z25        0x00000000        0x0
 .bss           0x00000000        0x0 /Applications/microchip/mplabc32/v2.00/bin/../lib/gcc/pic32mx/4.5.1/../../../../pic32mx/lib/libmchp_peripheral_32MX795F512L.a(I2CStop.o)

.data%z26       0x00000000        0x0
 .data          0x00000000        0x0 /Applications/microchip/mplabc32/v2.00/bin/../lib/gcc/pic32mx/4.5.1/../../../../pic32mx/lib/libmchp_peripheral_32MX795F512L.a(I2CStop.o)

.mdebug.abi32%z27
                0x00000000        0x0
 .mdebug.abi32  0x00000000        0x0 /Applications/microchip/mplabc32/v2.00/bin/../lib/gcc/pic32mx/4.5.1/../../../../pic32mx/lib/libmchp_peripheral_32MX795F512L.a(I2CStart.o)

.bss%z28        0x00000000        0x0
 .bss           0x00000000        0x0 /Applications/microchip/mplabc32/v2.00/bin/../lib/gcc/pic32mx/4.5.1/../../../../pic32mx/lib/libmchp_peripheral_32MX795F512L.a(I2CStart.o)

.data%z29       0x00000000        0x0
 .data          0x00000000        0x0 /Applications/microchip/mplabc32/v2.00/bin/../lib/gcc/pic32mx/4.5.1/../../../../pic32mx/lib/libmchp_peripheral_32MX795F512L.a(I2CStart.o)

.mdebug.abi32%z30
                0x00000000        0x0
 .mdebug.abi32  0x00000000        0x0 /Applications/microchip/mplabc32/v2.00/bin/../lib/gcc/pic32mx/4.5.1/../../../../pic32mx/lib/libmchp_peripheral_32MX795F512L.a(I2CSendByte.o)

.bss%z31        0x00000000        0x0
 .bss           0x00000000        0x0 /Applications/microchip/mplabc32/v2.00/bin/../lib/gcc/pic32mx/4.5.1/../../../../pic32mx/lib/libmchp_peripheral_32MX795F512L.a(I2CSendByte.o)

.data%z32       0x00000000        0x0
 .data          0x00000000        0x0 /Applications/microchip/mplabc32/v2.00/bin/../lib/gcc/pic32mx/4.5.1/../../../../pic32mx/lib/libmchp_peripheral_32MX795F512L.a(I2CSendByte.o)

.mdebug.abi32%z33
                0x00000000        0x0
 .mdebug.abi32  0x00000000        0x0 /Applications/microchip/mplabc32/v2.00/bin/../lib/gcc/pic32mx/4.5.1/../../../../pic32mx/lib/libmchp_peripheral_32MX795F512L.a(I2CRepeatStart.o)

.bss%z34        0x00000000        0x0
 .bss           0x00000000        0x0 /Applications/microchip/mplabc32/v2.00/bin/../lib/gcc/pic32mx/4.5.1/../../../../pic32mx/lib/libmchp_peripheral_32MX795F512L.a(I2CRepeatStart.o)

.data%z35       0x00000000        0x0
 .data          0x00000000        0x0 /Applications/microchip/mplabc32/v2.00/bin/../lib/gcc/pic32mx/4.5.1/../../../../pic32mx/lib/libmchp_peripheral_32MX795F512L.a(I2CRepeatStart.o)

.mdebug.abi32%z36
                0x00000000        0x0
 .mdebug.abi32  0x00000000        0x0 /Applications/microchip/mplabc32/v2.00/bin/../lib/gcc/pic32mx/4.5.1/../../../../pic32mx/lib/libmchp_peripheral_32MX795F512L.a(I2CReceiverEnable.o)

.bss%z37        0x00000000        0x0
 .bss           0x00000000        0x0 /Applications/microchip/mplabc32/v2.00/bin/../lib/gcc/pic32mx/4.5.1/../../../../pic32mx/lib/libmchp_peripheral_32MX795F512L.a(I2CReceiverEnable.o)

.data%z38       0x00000000        0x0
 .data          0x00000000        0x0 /Applications/microchip/mplabc32/v2.00/bin/../lib/gcc/pic32mx/4.5.1/../../../../pic32mx/lib/libmchp_peripheral_32MX795F512L.a(I2CReceiverEnable.o)

.mdebug.abi32%z39
                0x00000000        0x0
 .mdebug.abi32  0x00000000        0x0 /Applications/microchip/mplabc32/v2.00/bin/../lib/gcc/pic32mx/4.5.1/../../../../pic32mx/lib/libmchp_peripheral_32MX795F512L.a(I2CGetByte.o)

.bss%z40        0x00000000        0x0
 .bss           0x00000000        0x0 /Applications/microchip/mplabc32/v2.00/bin/../lib/gcc/pic32mx/4.5.1/../../../../pic32mx/lib/libmchp_peripheral_32MX795F512L.a(I2CGetByte.o)

.data%z41       0x00000000        0x0
 .data          0x00000000        0x0 /Applications/microchip/mplabc32/v2.00/bin/../lib/gcc/pic32mx/4.5.1/../../../../pic32mx/lib/libmchp_peripheral_32MX795F512L.a(I2CGetByte.o)

.mdebug.abi32%z42
                0x00000000        0x0
 .mdebug.abi32  0x00000000        0x0 /Applications/microchip/mplabc32/v2.00/bin/../lib/gcc/pic32mx/4.5.1/../../../../pic32mx/lib/libmchp_peripheral_32MX795F512L.a(I2CByteWasAcknowledged.o)

.bss%z43        0x00000000        0x0
 .bss           0x00000000        0x0 /Applications/microchip/mplabc32/v2.00/bin/../lib/gcc/pic32mx/4.5.1/../../../../pic32mx/lib/libmchp_peripheral_32MX795F512L.a(I2CByteWasAcknowledged.o)

.data%z44       0x00000000        0x0
 .data          0x00000000        0x0 /Applications/microchip/mplabc32/v2.00/bin/../lib/gcc/pic32mx/4.5.1/../../../../pic32mx/lib/libmchp_peripheral_32MX795F512L.a(I2CByteWasAcknowledged.o)

.mdebug.abi32%z45
                0x00000000        0x0
 .mdebug.abi32  0x00000000        0x0 /Applications/microchip/mplabc32/v2.00/bin/../lib/gcc/pic32mx/4.5.1/../../../../pic32mx/lib/libmchp_peripheral_32MX795F512L.a(I2CAcknowledgeByte.o)

.bss%z46        0x00000000        0x0
 .bss           0x00000000        0x0 /Applications/microchip/mplabc32/v2.00/bin/../lib/gcc/pic32mx/4.5.1/../../../../pic32mx/lib/libmchp_peripheral_32MX795F512L.a(I2CAcknowledgeByte.o)

.data%z47       0x00000000        0x0
 .data          0x00000000        0x0 /Applications/microchip/mplabc32/v2.00/bin/../lib/gcc/pic32mx/4.5.1/../../../../pic32mx/lib/libmchp_peripheral_32MX795F512L.a(I2CAcknowledgeByte.o)

.mdebug.abi32%z48
                0x00000000        0x0
 .mdebug.abi32  0x00000000        0x0 /Applications/microchip/mplabc32/v2.00/bin/../lib/gcc/pic32mx/4.5.1/../../../../pic32mx/lib/libmchp_peripheral_32MX795F512L.a(int_tbl_lib.o)

.bss%z49        0x00000000        0x0
 .bss           0x00000000        0x0 /Applications/microchip/mplabc32/v2.00/bin/../lib/gcc/pic32mx/4.5.1/../../../../pic32mx/lib/libmchp_peripheral_32MX795F512L.a(int_tbl_lib.o)

.data%z50       0x00000000        0x0
 .data          0x00000000        0x0 /Applications/microchip/mplabc32/v2.00/bin/../lib/gcc/pic32mx/4.5.1/../../../../pic32mx/lib/libmchp_peripheral_32MX795F512L.a(int_tbl_lib.o)

.mdebug.abi32%z51
                0x00000000        0x0
 .mdebug.abi32  0x00000000        0x0 /Applications/microchip/mplabc32/v2.00/bin/../lib/gcc/pic32mx/4.5.1/../../../../pic32mx/lib/libmchp_peripheral_32MX795F512L.a(int_enable_mv_int_lib.o)

.bss%z52        0x00000000        0x0
 .bss           0x00000000        0x0 /Applications/microchip/mplabc32/v2.00/bin/../lib/gcc/pic32mx/4.5.1/../../../../pic32mx/lib/libmchp_peripheral_32MX795F512L.a(int_enable_mv_int_lib.o)

.data%z53       0x00000000        0x0
 .data          0x00000000        0x0 /Applications/microchip/mplabc32/v2.00/bin/../lib/gcc/pic32mx/4.5.1/../../../../pic32mx/lib/libmchp_peripheral_32MX795F512L.a(int_enable_mv_int_lib.o)

.mdebug.abi32%z54
                0x00000000        0x0
 .mdebug.abi32  0x00000000        0x0 /Applications/microchip/mplabc32/v2.00/bin/../lib/gcc/pic32mx/4.5.1/../../../../pic32mx/lib/libmchp_peripheral_32MX795F512L.a(int_enable_interrupts_lib.o)

.bss%z55        0x00000000        0x0
 .bss           0x00000000        0x0 /Applications/microchip/mplabc32/v2.00/bin/../lib/gcc/pic32mx/4.5.1/../../../../pic32mx/lib/libmchp_peripheral_32MX795F512L.a(int_enable_interrupts_lib.o)

.data%z56       0x00000000        0x0
 .data          0x00000000        0x0 /Applications/microchip/mplabc32/v2.00/bin/../lib/gcc/pic32mx/4.5.1/../../../../pic32mx/lib/libmchp_peripheral_32MX795F512L.a(int_enable_interrupts_lib.o)

.mdebug.abi32%z57
                0x00000000        0x0
 .mdebug.abi32  0x00000000        0x0 /Applications/microchip/mplabc32/v2.00/bin/../lib/gcc/pic32mx/4.5.1/../../../../pic32mx/lib/libmchp_peripheral_32MX795F512L.a(int_configure_system_lib.o)

.bss%z58        0x00000000        0x0
 .bss           0x00000000        0x0 /Applications/microchip/mplabc32/v2.00/bin/../lib/gcc/pic32mx/4.5.1/../../../../pic32mx/lib/libmchp_peripheral_32MX795F512L.a(int_configure_system_lib.o)

.data%z59       0x00000000        0x0
 .data          0x00000000        0x0 /Applications/microchip/mplabc32/v2.00/bin/../lib/gcc/pic32mx/4.5.1/../../../../pic32mx/lib/libmchp_peripheral_32MX795F512L.a(int_configure_system_lib.o)

.mdebug.abi32%z60
                0x00000000        0x0
 .mdebug.abi32  0x00000000        0x0 /Applications/microchip/mplabc32/v2.00/bin/../lib/gcc/pic32mx/4.5.1/../../../../pic32mx/lib/libe.a(_floatdisf.o)

.bss%z61        0x00000000        0x0
 .bss           0x00000000        0x0 /Applications/microchip/mplabc32/v2.00/bin/../lib/gcc/pic32mx/4.5.1/../../../../pic32mx/lib/libe.a(_floatdisf.o)

.data%z62       0x00000000        0x0
 .data          0x00000000        0x0 /Applications/microchip/mplabc32/v2.00/bin/../lib/gcc/pic32mx/4.5.1/../../../../pic32mx/lib/libe.a(_floatdisf.o)

.bss%z63        0x00000000        0x0
 .bss           0x00000000        0x0 /Applications/microchip/mplabc32/v2.00/bin/../lib/gcc/pic32mx/4.5.1/../../../../pic32mx/lib/libm.a(fpsqrt32.o)

.data%z64       0x00000000        0x0
 .data          0x00000000        0x0 /Applications/microchip/mplabc32/v2.00/bin/../lib/gcc/pic32mx/4.5.1/../../../../pic32mx/lib/libm.a(fpsqrt32.o)

.bss%z65        0x00000000        0x0
 .bss           0x00000000        0x0 /Applications/microchip/mplabc32/v2.00/bin/../lib/gcc/pic32mx/4.5.1/../../../../pic32mx/lib/libm.a(fparc32.o)

.mdebug.abi32%z66
                0x00000000        0x0
 .mdebug.abi32  0x00000000        0x0 /Applications/microchip/mplabc32/v2.00/bin/../lib/gcc/pic32mx/4.5.1/../../../../pic32mx/lib/libm.a(s_lib_ver.o)

.bss%z67        0x00000000        0x0
 .bss           0x00000000        0x0 /Applications/microchip/mplabc32/v2.00/bin/../lib/gcc/pic32mx/4.5.1/../../../../pic32mx/lib/libm.a(s_lib_ver.o)

.data%z68       0x00000000        0x0
 .data          0x00000000        0x0 /Applications/microchip/mplabc32/v2.00/bin/../lib/gcc/pic32mx/4.5.1/../../../../pic32mx/lib/libm.a(s_lib_ver.o)

.bss%z69        0x00000000        0x0
 .bss           0x00000000        0x0 /Applications/microchip/mplabc32/v2.00/bin/../lib/gcc/pic32mx/4.5.1/../../../../pic32mx/lib/libm.a(fp32.o)

.data%z70       0x00000000        0x0
 .data          0x00000000        0x0 /Applications/microchip/mplabc32/v2.00/bin/../lib/gcc/pic32mx/4.5.1/../../../../pic32mx/lib/libm.a(fp32.o)

.mdebug.abi32%z71
                0x00000000        0x0
 .mdebug.abi32  0x00000000        0x0 /Applications/microchip/mplabc32/v2.00/bin/../lib/gcc/pic32mx/4.5.1/../../../../pic32mx/lib/libm.a(w_sqrtf.o)

.bss%z72        0x00000000        0x0
 .bss           0x00000000        0x0 /Applications/microchip/mplabc32/v2.00/bin/../lib/gcc/pic32mx/4.5.1/../../../../pic32mx/lib/libm.a(w_sqrtf.o)

.data%z73       0x00000000        0x0
 .data          0x00000000        0x0 /Applications/microchip/mplabc32/v2.00/bin/../lib/gcc/pic32mx/4.5.1/../../../../pic32mx/lib/libm.a(w_sqrtf.o)

.bss%z74        0x00000000        0x0
 .bss           0x00000000        0x0 /Applications/microchip/mplabc32/v2.00/bin/../lib/gcc/pic32mx/4.5.1/../../../../pic32mx/lib/libm.a(dp32.o)

.data%z75       0x00000000        0x0
 .data          0x00000000        0x0 /Applications/microchip/mplabc32/v2.00/bin/../lib/gcc/pic32mx/4.5.1/../../../../pic32mx/lib/libm.a(dp32.o)

.bss%z76        0x00000000        0x0
 .bss           0x00000000        0x0 /Applications/microchip/mplabc32/v2.00/bin/../lib/gcc/pic32mx/4.5.1/../../../../pic32mx/lib/libm.a(fpmod32.o)

.data%z77       0x00000000        0x0
 .data          0x00000000        0x0 /Applications/microchip/mplabc32/v2.00/bin/../lib/gcc/pic32mx/4.5.1/../../../../pic32mx/lib/libm.a(fpmod32.o)

.mdebug.abi32%z78
                0x00000000        0x0
 .mdebug.abi32  0x00000000        0x0 /Applications/microchip/mplabc32/v2.00/bin/../lib/gcc/pic32mx/4.5.1/../../../../pic32mx/lib/libm.a(w_asinf.o)

.bss%z79        0x00000000        0x0
 .bss           0x00000000        0x0 /Applications/microchip/mplabc32/v2.00/bin/../lib/gcc/pic32mx/4.5.1/../../../../pic32mx/lib/libm.a(w_asinf.o)

.data%z80       0x00000000        0x0
 .data          0x00000000        0x0 /Applications/microchip/mplabc32/v2.00/bin/../lib/gcc/pic32mx/4.5.1/../../../../pic32mx/lib/libm.a(w_asinf.o)

.mdebug.abi32%z81
                0x00000000        0x0
 .mdebug.abi32  0x00000000        0x0 /Applications/microchip/mplabc32/v2.00/bin/../lib/gcc/pic32mx/4.5.1/../../../../pic32mx/lib/libc.a(c32_uart.o)

.bss%z82        0x00000000        0x0
 .bss           0x00000000        0x0 /Applications/microchip/mplabc32/v2.00/bin/../lib/gcc/pic32mx/4.5.1/../../../../pic32mx/lib/libc.a(c32_uart.o)

.data%z83       0x00000000        0x0
 .data          0x00000000        0x0 /Applications/microchip/mplabc32/v2.00/bin/../lib/gcc/pic32mx/4.5.1/../../../../pic32mx/lib/libc.a(c32_uart.o)

.mdebug.abi32%z84
                0x00000000        0x0
 .mdebug.abi32  0x00000000        0x0 /Applications/microchip/mplabc32/v2.00/bin/../lib/gcc/pic32mx/4.5.1/../../../../pic32mx/lib/libc.a(_mon_putc.o)

.bss%z85        0x00000000        0x0
 .bss           0x00000000        0x0 /Applications/microchip/mplabc32/v2.00/bin/../lib/gcc/pic32mx/4.5.1/../../../../pic32mx/lib/libc.a(_mon_putc.o)

.data%z86       0x00000000        0x0
 .data          0x00000000        0x0 /Applications/microchip/mplabc32/v2.00/bin/../lib/gcc/pic32mx/4.5.1/../../../../pic32mx/lib/libc.a(_mon_putc.o)

.mdebug.abi32%z87
                0x00000000        0x0
 .mdebug.abi32  0x00000000        0x0 /Applications/microchip/mplabc32/v2.00/bin/../lib/gcc/pic32mx/4.5.1/../../../../pic32mx/lib/libc.a(_flsbuf_simple.o)

.bss%z88        0x00000000        0x0
 .bss           0x00000000        0x0 /Applications/microchip/mplabc32/v2.00/bin/../lib/gcc/pic32mx/4.5.1/../../../../pic32mx/lib/libc.a(_flsbuf_simple.o)

.data%z89       0x00000000        0x0
 .data          0x00000000        0x0 /Applications/microchip/mplabc32/v2.00/bin/../lib/gcc/pic32mx/4.5.1/../../../../pic32mx/lib/libc.a(_flsbuf_simple.o)

.mdebug.abi32%z90
                0x00000000        0x0
 .mdebug.abi32  0x00000000        0x0 /Applications/microchip/mplabc32/v2.00/bin/../lib/gcc/pic32mx/4.5.1/../../../../pic32mx/lib/libc.a(_iob.o)

.bss%z91        0x00000000        0x0
 .bss           0x00000000        0x0 /Applications/microchip/mplabc32/v2.00/bin/../lib/gcc/pic32mx/4.5.1/../../../../pic32mx/lib/libc.a(_iob.o)

.data%z92       0x00000000        0x0
 .data          0x00000000        0x0 /Applications/microchip/mplabc32/v2.00/bin/../lib/gcc/pic32mx/4.5.1/../../../../pic32mx/lib/libc.a(_iob.o)

.mdebug.abi32%z93
                0x00000000        0x0
 .mdebug.abi32  0x00000000        0x0 /Applications/microchip/mplabc32/v2.00/bin/../lib/gcc/pic32mx/4.5.1/../../../../pic32mx/lib/libc.a(write.o)

.bss%z94        0x00000000        0x0
 .bss           0x00000000        0x0 /Applications/microchip/mplabc32/v2.00/bin/../lib/gcc/pic32mx/4.5.1/../../../../pic32mx/lib/libc.a(write.o)

.data%z95       0x00000000        0x0
 .data          0x00000000        0x0 /Applications/microchip/mplabc32/v2.00/bin/../lib/gcc/pic32mx/4.5.1/../../../../pic32mx/lib/libc.a(write.o)

.mdebug.abi32%z96
                0x00000000        0x0
 .mdebug.abi32  0x00000000        0x0 /Applications/microchip/mplabc32/v2.00/bin/../lib/gcc/pic32mx/4.5.1/../../../../pic32mx/lib/libc.a(powers.o)

.bss%z97        0x00000000        0x0
 .bss           0x00000000        0x0 /Applications/microchip/mplabc32/v2.00/bin/../lib/gcc/pic32mx/4.5.1/../../../../pic32mx/lib/libc.a(powers.o)

.data%z98       0x00000000        0x0
 .data          0x00000000        0x0 /Applications/microchip/mplabc32/v2.00/bin/../lib/gcc/pic32mx/4.5.1/../../../../pic32mx/lib/libc.a(powers.o)

.mdebug.abi32%z99
                0x00000000        0x0
 .mdebug.abi32  0x00000000        0x0 /Applications/microchip/mplabc32/v2.00/bin/../lib/gcc/pic32mx/4.5.1/../../../../pic32mx/lib/libc.a(_fputc_simple.o)

.bss%z100       0x00000000        0x0
 .bss           0x00000000        0x0 /Applications/microchip/mplabc32/v2.00/bin/../lib/gcc/pic32mx/4.5.1/../../../../pic32mx/lib/libc.a(_fputc_simple.o)

.data%z101      0x00000000        0x0
 .data          0x00000000        0x0 /Applications/microchip/mplabc32/v2.00/bin/../lib/gcc/pic32mx/4.5.1/../../../../pic32mx/lib/libc.a(_fputc_simple.o)

.mdebug.abi32%z102
                0x00000000        0x0
 .mdebug.abi32  0x00000000        0x0 /Applications/microchip/mplabc32/v2.00/bin/../lib/gcc/pic32mx/4.5.1/../../../../pic32mx/lib/libc.a(doprnt_fF.eo)

.bss%z103       0x00000000        0x0
 .bss           0x00000000        0x0 /Applications/microchip/mplabc32/v2.00/bin/../lib/gcc/pic32mx/4.5.1/../../../../pic32mx/lib/libc.a(doprnt_fF.eo)

.data%z104      0x00000000        0x0
 .data          0x00000000        0x0 /Applications/microchip/mplabc32/v2.00/bin/../lib/gcc/pic32mx/4.5.1/../../../../pic32mx/lib/libc.a(doprnt_fF.eo)

.mdebug.abi32%z105
                0x00000000        0x0
 .mdebug.abi32  0x00000000        0x0 /Applications/microchip/mplabc32/v2.00/bin/../lib/gcc/pic32mx/4.5.1/../../../../pic32mx/lib/libc.a(ctype.o)

.bss%z106       0x00000000        0x0
 .bss           0x00000000        0x0 /Applications/microchip/mplabc32/v2.00/bin/../lib/gcc/pic32mx/4.5.1/../../../../pic32mx/lib/libc.a(ctype.o)

.data%z107      0x00000000        0x0
 .data          0x00000000        0x0 /Applications/microchip/mplabc32/v2.00/bin/../lib/gcc/pic32mx/4.5.1/../../../../pic32mx/lib/libc.a(ctype.o)

.bss%z108       0x00000000        0x0
 .bss           0x00000000        0x0 /Applications/microchip/mplabc32/v2.00/bin/../lib/gcc/pic32mx/4.5.1/../../../../pic32mx/lib/libc.a(default-nmi-handler.o)

.data%z109      0x00000000        0x0
 .data          0x00000000        0x0 /Applications/microchip/mplabc32/v2.00/bin/../lib/gcc/pic32mx/4.5.1/../../../../pic32mx/lib/libc.a(default-nmi-handler.o)

.mdebug.abi32%z110
                0x00000000        0x0
 .mdebug.abi32  0x00000000        0x0 /Applications/microchip/mplabc32/v2.00/bin/../lib/gcc/pic32mx/4.5.1/../../../../pic32mx/lib/libc.a(default-on-bootstrap.o)

.bss%z111       0x00000000        0x0
 .bss           0x00000000        0x0 /Applications/microchip/mplabc32/v2.00/bin/../lib/gcc/pic32mx/4.5.1/../../../../pic32mx/lib/libc.a(default-on-bootstrap.o)

.data%z112      0x00000000        0x0
 .data          0x00000000        0x0 /Applications/microchip/mplabc32/v2.00/bin/../lib/gcc/pic32mx/4.5.1/../../../../pic32mx/lib/libc.a(default-on-bootstrap.o)

.mdebug.abi32%z113
                0x00000000        0x0
 .mdebug.abi32  0x00000000        0x0 /Applications/microchip/mplabc32/v2.00/bin/../lib/gcc/pic32mx/4.5.1/../../../../pic32mx/lib/libc.a(default-on-reset.o)

.bss%z114       0x00000000        0x0
 .bss           0x00000000        0x0 /Applications/microchip/mplabc32/v2.00/bin/../lib/gcc/pic32mx/4.5.1/../../../../pic32mx/lib/libc.a(default-on-reset.o)

.data%z115      0x00000000        0x0
 .data          0x00000000        0x0 /Applications/microchip/mplabc32/v2.00/bin/../lib/gcc/pic32mx/4.5.1/../../../../pic32mx/lib/libc.a(default-on-reset.o)

.mdebug.abi32%z116
                0x00000000        0x0
 .mdebug.abi32  0x00000000        0x0 /Applications/microchip/mplabc32/v2.00/bin/../lib/gcc/pic32mx/4.5.1/../../../../pic32mx/lib/libc.a(default-bootstrap-exception-handler.o)

.bss%z117       0x00000000        0x0
 .bss           0x00000000        0x0 /Applications/microchip/mplabc32/v2.00/bin/../lib/gcc/pic32mx/4.5.1/../../../../pic32mx/lib/libc.a(default-bootstrap-exception-handler.o)

.data%z118      0x00000000        0x0
 .data          0x00000000        0x0 /Applications/microchip/mplabc32/v2.00/bin/../lib/gcc/pic32mx/4.5.1/../../../../pic32mx/lib/libc.a(default-bootstrap-exception-handler.o)

.mdebug.abi32%z119
                0x00000000        0x0
 .mdebug.abi32  0x00000000        0x0 /Applications/microchip/mplabc32/v2.00/bin/../lib/gcc/pic32mx/4.5.1/../../../../pic32mx/lib/libc.a(default-general-exception-handler.o)

.bss%z120       0x00000000        0x0
 .bss           0x00000000        0x0 /Applications/microchip/mplabc32/v2.00/bin/../lib/gcc/pic32mx/4.5.1/../../../../pic32mx/lib/libc.a(default-general-exception-handler.o)

.data%z121      0x00000000        0x0
 .data          0x00000000        0x0 /Applications/microchip/mplabc32/v2.00/bin/../lib/gcc/pic32mx/4.5.1/../../../../pic32mx/lib/libc.a(default-general-exception-handler.o)

.mdebug.abi32%z122
                0x00000000        0x0
 .mdebug.abi32  0x00000000        0x0 /Applications/microchip/mplabc32/v2.00/bin/../lib/gcc/pic32mx/4.5.1/../../../../pic32mx/lib/libc.a(sprintf_fF.eo)

.bss%z123       0x00000000        0x0
 .bss           0x00000000        0x0 /Applications/microchip/mplabc32/v2.00/bin/../lib/gcc/pic32mx/4.5.1/../../../../pic32mx/lib/libc.a(sprintf_fF.eo)

.data%z124      0x00000000        0x0
 .data          0x00000000        0x0 /Applications/microchip/mplabc32/v2.00/bin/../lib/gcc/pic32mx/4.5.1/../../../../pic32mx/lib/libc.a(sprintf_fF.eo)

.mdebug.abi32%z125
                0x00000000        0x0
 .mdebug.abi32  0x00000000        0x0 /Applications/microchip/mplabc32/v2.00/bin/../lib/gcc/pic32mx/4.5.1/../../../../pic32mx/lib/libc.a(ctypef.o)

.bss%z126       0x00000000        0x0
 .bss           0x00000000        0x0 /Applications/microchip/mplabc32/v2.00/bin/../lib/gcc/pic32mx/4.5.1/../../../../pic32mx/lib/libc.a(ctypef.o)

.data%z127      0x00000000        0x0
 .data          0x00000000        0x0 /Applications/microchip/mplabc32/v2.00/bin/../lib/gcc/pic32mx/4.5.1/../../../../pic32mx/lib/libc.a(ctypef.o)

.bss%z128       0x00000000        0x0
 .bss           0x00000000        0x0 /Applications/microchip/mplabc32/v2.00/bin/../lib/gcc/pic32mx/4.5.1/../../../../pic32mx/lib/libc.a(general-exception.o)

.data%z129      0x00000000        0x0
 .data          0x00000000        0x0 /Applications/microchip/mplabc32/v2.00/bin/../lib/gcc/pic32mx/4.5.1/../../../../pic32mx/lib/libc.a(general-exception.o)

.bss%z130       0x00000000        0x0
 .bss           0x00000000        0x0 /Applications/microchip/mplabc32/v2.00/bin/../lib/gcc/pic32mx/4.5.1/../../../../pic32mx/lib/libc.a(strlen.o)

.data%z131      0x00000000        0x0
 .data          0x00000000        0x0 /Applications/microchip/mplabc32/v2.00/bin/../lib/gcc/pic32mx/4.5.1/../../../../pic32mx/lib/libc.a(strlen.o)

.mdebug.abi32%z132
                0x00000000        0x0
 .mdebug.abi32  0x00000000        0x0 build/default/production/_ext/1472/Uart-Gruppio.o

.bss%z133       0x00000000        0x0
 .bss           0x00000000        0x0 build/default/production/_ext/1472/Uart-Gruppio.o

.data%z134      0x00000000        0x0
 .data          0x00000000        0x0 build/default/production/_ext/1472/Uart-Gruppio.o

.mdebug.abi32%z135
                0x00000000        0x0
 .mdebug.abi32  0x00000000        0x0 build/default/production/_ext/1472/Timer-PWM-Gruppio.o

.bss%z136       0x00000000        0x0
 .bss           0x00000000        0x0 build/default/production/_ext/1472/Timer-PWM-Gruppio.o

.data%z137      0x00000000        0x0
 .data          0x00000000        0x0 build/default/production/_ext/1472/Timer-PWM-Gruppio.o

.mdebug.abi32%z138
                0x00000000        0x0
 .mdebug.abi32  0x00000000        0x0 build/default/production/_ext/1472/PicasoSGC.o

.bss%z139       0x00000000        0x0
 .bss           0x00000000        0x0 build/default/production/_ext/1472/PicasoSGC.o

.data%z140      0x00000000        0x0
 .data          0x00000000        0x0 build/default/production/_ext/1472/PicasoSGC.o

.mdebug.abi32%z141
                0x00000000        0x0
 .mdebug.abi32  0x00000000        0x0 build/default/production/_ext/1472/Pic32mx7.o

.bss%z142       0x00000000        0x0
 .bss           0x00000000        0x0 build/default/production/_ext/1472/Pic32mx7.o

.data%z143      0x00000000        0x0
 .data          0x00000000        0x0 build/default/production/_ext/1472/Pic32mx7.o

.mdebug.abi32%z144
                0x00000000        0x0
 .mdebug.abi32  0x00000000        0x0 build/default/production/_ext/1472/MLX90614.o

.bss%z145       0x00000000        0x0
 .bss           0x00000000        0x0 build/default/production/_ext/1472/MLX90614.o

.data%z146      0x00000000        0x0
 .data          0x00000000        0x0 build/default/production/_ext/1472/MLX90614.o

.mdebug.abi32%z147
                0x00000000        0x0
 .mdebug.abi32  0x00000000        0x0 build/default/production/_ext/1472/ITG3200.o

.bss%z148       0x00000000        0x0
 .bss           0x00000000        0x0 build/default/production/_ext/1472/ITG3200.o

.data%z149      0x00000000        0x0
 .data          0x00000000        0x0 build/default/production/_ext/1472/ITG3200.o

.mdebug.abi32%z150
                0x00000000        0x0
 .mdebug.abi32  0x00000000        0x0 build/default/production/_ext/1472/IGruppioV2.o

.bss%z151       0x00000000        0x0
 .bss           0x00000000        0x0 build/default/production/_ext/1472/IGruppioV2.o

.data%z152      0x00000000        0x0
 .data          0x00000000        0x0 build/default/production/_ext/1472/IGruppioV2.o

.mdebug.abi32%z153
                0x00000000        0x0
 .mdebug.abi32  0x00000000        0x0 build/default/production/_ext/1472/I2C - Gruppio.o

.bss%z154       0x00000000        0x0
 .bss           0x00000000        0x0 build/default/production/_ext/1472/I2C - Gruppio.o

.data%z155      0x00000000        0x0
 .data          0x00000000        0x0 build/default/production/_ext/1472/I2C - Gruppio.o

.mdebug.abi32%z156
                0x00000000        0x0
 .mdebug.abi32  0x00000000        0x0 build/default/production/_ext/1472/HMC6352.o

.bss%z157       0x00000000        0x0
 .bss           0x00000000        0x0 build/default/production/_ext/1472/HMC6352.o

.data%z158      0x00000000        0x0
 .data          0x00000000        0x0 build/default/production/_ext/1472/HMC6352.o

.mdebug.abi32%z159
                0x00000000        0x0
 .mdebug.abi32  0x00000000        0x0 build/default/production/_ext/1472/Grapichs.o

.bss%z160       0x00000000        0x0
 .bss           0x00000000        0x0 build/default/production/_ext/1472/Grapichs.o

.data%z161      0x00000000        0x0
 .data          0x00000000        0x0 build/default/production/_ext/1472/Grapichs.o

.mdebug.abi32%z162
                0x00000000        0x0
 .mdebug.abi32  0x00000000        0x0 build/default/production/_ext/1472/Filter.o

.bss%z163       0x00000000        0x0
 .bss           0x00000000        0x0 build/default/production/_ext/1472/Filter.o

.data%z164      0x00000000        0x0
 .data          0x00000000        0x0 build/default/production/_ext/1472/Filter.o

.mdebug.abi32%z165
                0x00000000        0x0
 .mdebug.abi32  0x00000000        0x0 build/default/production/_ext/1472/App.o

.bss%z166       0x00000000        0x0
 .bss           0x00000000        0x0 build/default/production/_ext/1472/App.o

.data%z167      0x00000000        0x0
 .data          0x00000000        0x0 build/default/production/_ext/1472/App.o

.mdebug.abi32%z168
                0x00000000        0x0
 .mdebug.abi32  0x00000000        0x0 build/default/production/_ext/1472/Adxl345.o

.bss%z169       0x00000000        0x0
 .bss           0x00000000        0x0 build/default/production/_ext/1472/Adxl345.o

.data%z170      0x00000000        0x0
 .data          0x00000000        0x0 build/default/production/_ext/1472/Adxl345.o

.mdebug.abi32%z171
                0x00000000        0x0
 .mdebug.abi32  0x00000000        0x0 build/default/production/_ext/1472/Adc-Gruppio.o

.bss%z172       0x00000000        0x0
 .bss           0x00000000        0x0 build/default/production/_ext/1472/Adc-Gruppio.o

.data%z173      0x00000000        0x0
 .data          0x00000000        0x0 build/default/production/_ext/1472/Adc-Gruppio.o

.bss%z174       0x00000000        0x0
 .bss           0x00000000        0x0 /Applications/microchip/mplabc32/v2.00/bin/../lib/gcc/pic32mx/4.5.1/../../../../pic32mx/lib/crt0.o

.data%z175      0x00000000        0x0
 .data          0x00000000        0x0 /Applications/microchip/mplabc32/v2.00/bin/../lib/gcc/pic32mx/4.5.1/../../../../pic32mx/lib/crt0.o

.text           0x9d000a00     0x6b18
 .text          0x9d000a00     0x25a8 build/default/production/_ext/1472/Grapichs.o
                0x9d000a00                DrawHome
                0x9d0012f8                DrawMenu
                0x9d0019e8                DrawMenuSelector
                0x9d0022e0                DrawMenu14
                0x9d002f00                DrawBaseApp
 .text          0x9d002fa8     0x1e34 build/default/production/_ext/1472/PicasoSGC.o
                0x9d002fa8                Lcd_putc
                0x9d002fe8                Lcd_putI
                0x9d003020                Lcd_getc
                0x9d003064                AutoBaud
                0x9d0030c0                SetNewBaudRate
                0x9d003134                ReplaceBackgroundColor
                0x9d0031a0                ClearScreen
                0x9d0031fc                DisplayControl
                0x9d003288                SetVolume
                0x9d0032fc                DrawCircle
                0x9d003398                SetBackgroundColor
                0x9d003404                SetPenSize
                0x9d003478                SetFont
                0x9d0034ec                SetTransparent
                0x9d003580                DrawLine
                0x9d003628                DrawChBig
                0x9d0036f8                DrawCh
                0x9d0037a8                DrawString
                0x9d0038a0                DrawStringBig
                0x9d0039b8                ReplaceColor
                0x9d003a6c                PutPixel
                0x9d003af8                DrawTriangle
                0x9d003ba0                DrawRectangle
                0x9d003c48                DrawEllipse
                0x9d003cf0                InitLcd
                0x9d003d98                InitSD
                0x9d003e00                DisplayImage
                0x9d003f18                PlayAudio
                0x9d004010                DrawButton
                0x9d004148                ReadTouch
                0x9d004230                WaitUntilTouch
                0x9d004284                DetectTouchRegion
                0x9d004320                ReadPixel
                0x9d0043dc                TouchStatus
                0x9d0044e4                WaitTouchPress
                0x9d0045d4                WaitTouchActivity
                0x9d0046c4                WaitTouchRelease
                0x9d0047b4                WaitTouchMoving
                0x9d0048a4                GetTouchCoordinates
                0x9d004990                CenterText
                0x9d004a88                DrawMyButton
 .text          0x9d004ddc     0x1614 build/default/production/_ext/1472/Pic32mx7.o
                0x9d004ddc                main
                0x9d005408                MenuSensor
                0x9d0055b4                MenuAcc
                0x9d0058cc                MenuLight
                0x9d005a80                MenuRgb
                0x9d005f0c                MenuRadio
                0x9d006024                MenuGyro
                0x9d006110                HomeHandler
                0x9d00623c                IntUart3AHandler
 .text          0x9d0063f0     0x1128 /Applications/microchip/mplabc32/v2.00/bin/../lib/gcc/pic32mx/4.5.1/../../../../pic32mx/lib/libm.a(dp32.o)
                0x9d0063f0                __subdf3
                0x9d0063f0                dpsub
                0x9d0063f8                __adddf3
                0x9d0063f8                dpadd
                0x9d00681c                __muldf3
                0x9d00681c                dpmul
                0x9d006b44                dpdiv
                0x9d006b44                __divdf3
                0x9d006ff8                __floatsidf
                0x9d006ff8                litodp
                0x9d00706c                ultodp
                0x9d0070bc                __extendsfdf2
                0x9d0070bc                fptodp
                0x9d007160                __truncdfsf2
                0x9d007160                dptofp
                0x9d007258                dptoli
                0x9d007258                __fixdfsi
                0x9d0072e0                dptoul
                0x9d0072e0                __fixunsdfsi
                0x9d007364                __eqdf2
                0x9d007364                __ltdf2
                0x9d007364                __gedf2
                0x9d007364                __ledf2
                0x9d007364                dpcmp
                0x9d007364                __nedf2
                0x9d007364                __gtdf2
                0x9d007488                __negdf2
                0x9d0074a0                dpfabs
                0x9d0074a0                fabs
                0x9d0074bc                nan
                0x9d0074bc                dpnan

.text._vfprintf_fF
                0x9d007518     0x107c
 .text._vfprintf_fF
                0x9d007518     0x107c /Applications/microchip/mplabc32/v2.00/bin/../lib/gcc/pic32mx/4.5.1/../../../../pic32mx/lib/libc.a(doprnt_fF.eo)
                0x9d007518                _vfprintf_fF

.text           0x9d008594     0x558c
 .text          0x9d008594      0xdc0 build/default/production/_ext/1472/Uart-Gruppio.o
                0x9d008594                InitUart
                0x9d0089b4                Uart1_write_string
                0x9d008a28                Uart1_putc
                0x9d008a74                Uart1_putI
                0x9d008b00                Uart1_getc
                0x9d008b44                Uart2_write_string
                0x9d008bb8                Uart2_putc
                0x9d008c04                Uart2_putI
                0x9d008c90                Uart2_getc
                0x9d008cd4                Uart3_write_string
                0x9d008d48                Uart3_putc
                0x9d008d94                Uart3_putI
                0x9d008e20                Uart3_getc
                0x9d008e64                Uart4_write_string
                0x9d008ed8                Uart4_putc
                0x9d008f24                Uart4_putI
                0x9d008fac                Uart4_getc
                0x9d008ff0                Uart5_write_string
                0x9d009064                Uart5_putc
                0x9d0090b0                Uart5_putI
                0x9d00913c                Uart5_getc
                0x9d009180                Uart6_write_string
                0x9d0091f4                Uart6_putc
                0x9d009240                Uart6_putI
                0x9d0092cc                Uart6_getc
                0x9d009310                Uart_Extern_getc
 .text          0x9d009354      0xb3c build/default/production/_ext/1472/I2C - Gruppio.o
                0x9d009354                InitI2C
                0x9d009464                IdleI2C2A
                0x9d009508                I2C2AReadRegister
                0x9d009708                I2C2AReadTwoRegister
                0x9d0099c0                I2C2AWriteRegister
                0x9d009b58                I2C2AWriteTwoRegister
                0x9d009d5c                I2C2AWriteByte
 .text          0x9d009e90      0xa08 /Applications/microchip/mplabc32/v2.00/bin/../lib/gcc/pic32mx/4.5.1/../../../../pic32mx/lib/libm.a(fparc32.o)
                0x9d009e90                fpexatan
                0x9d00a1dc                atanf
                0x9d00a1dc                fpatan
                0x9d00a278                __mchp_atan2f
                0x9d00a278                fpatan2
                0x9d00a4bc                fpasin
                0x9d00a4bc                __mchp_asinf
                0x9d00a694                __mchp_acosf
                0x9d00a694                fpacos
 .text          0x9d00a898      0x8ec /Applications/microchip/mplabc32/v2.00/bin/../lib/gcc/pic32mx/4.5.1/../../../../pic32mx/lib/libm.a(fp32.o)
                0x9d00a898                __subsf3
                0x9d00a898                fpsub
                0x9d00a8a0                fpadd
                0x9d00a8a0                __addsf3
                0x9d00ab0c                fpmul
                0x9d00ab0c                __mulsf3
                0x9d00acc4                __divsf3
                0x9d00acc4                fpdiv
                0x9d00aef0                __floatsisf
                0x9d00aef0                litofp
                0x9d00aef0                sitofp
                0x9d00af4c                ultofp
                0x9d00af4c                uitofp
                0x9d00af98                fptoli
                0x9d00af98                fptosi
                0x9d00af98                __fixsfsi
                0x9d00b010                fptoui
                0x9d00b010                fptoul
                0x9d00b010                __fixunssfsi
                0x9d00b084                __nesf2
                0x9d00b084                __gtsf2
                0x9d00b084                __ltsf2
                0x9d00b084                __gesf2
                0x9d00b084                fpcmp
                0x9d00b084                __eqsf2
                0x9d00b084                __lesf2
                0x9d00b118                fabsf
                0x9d00b118                fpfabs
                0x9d00b128                __negsf2
                0x9d00b138                fpnan
                0x9d00b138                nanf
 .text          0x9d00b184      0x864 build/default/production/_ext/1472/Adxl345.o
                0x9d00b184                InitAcc
                0x9d00b2b4                ReadRegY
                0x9d00b2f8                ReadRegX
                0x9d00b33c                ReadRegZ
                0x9d00b380                ReadAccY
                0x9d00b44c                ReadAccX
                0x9d00b518                ReadAccZ
                0x9d00b5e4                ReadAccTotal
                0x9d00b6ac                ReadAngleX
                0x9d00b7bc                ReadAngleY
                0x9d00b8cc                ReadAngleZ
 .text          0x9d00b9e8      0x694 build/default/production/_ext/1472/App.o
                0x9d00b9e8                GPS
                0x9d00bb50                AccAxies
                0x9d00bcb0                FreeFall
                0x9d00be44                Angle
                0x9d00bf60                GyroAxies
 .text          0x9d00c07c      0x5e8 build/default/production/_ext/1472/ITG3200.o
                0x9d00c07c                InitGyro
                0x9d00c2d8                ReadRegGyroY
                0x9d00c31c                ReadRegGyroX
                0x9d00c360                ReadRegGyroZ
                0x9d00c3a4                ReadWY
                0x9d00c458                ReadWX
                0x9d00c50c                ReadWZ
                0x9d00c5c0                ReadTemp
 .text          0x9d00c664      0x46c /Applications/microchip/mplabc32/v2.00/bin/../lib/gcc/pic32mx/4.5.1/libgcc.a(_umoddi3.o)
                0x9d00c664                __umoddi3
 .text          0x9d00cad0      0x448 /Applications/microchip/mplabc32/v2.00/bin/../lib/gcc/pic32mx/4.5.1/libgcc.a(_udivdi3.o)
                0x9d00cad0                __udivdi3
 .text          0x9d00cf18      0x3dc /Applications/microchip/mplabc32/v2.00/bin/../lib/gcc/pic32mx/4.5.1/../../../../pic32mx/lib/libm.a(fpmod32.o)
                0x9d00cf18                fpfmod
                0x9d00cf18                fmodf
                0x9d00d05c                fpfrexp
                0x9d00d05c                frexpf
                0x9d00d0e0                fpldexp
                0x9d00d0e0                __mchp_ldexpf
                0x9d00d224                fpmodf
                0x9d00d224                modff
 .text          0x9d00d2f4      0x2e4 build/default/production/_ext/1472/MLX90614.o
                0x9d00d2f4                ReadIRTemp
 .text          0x9d00d5d8      0x2a8 build/default/production/_ext/1472/IGruppioV2.o
                0x9d00d5d8                InitInterrupt
                0x9d00d638                InitTimer1
                0x9d00d688                Delayus
                0x9d00d6d4                ErrorHomeScreen
                0x9d00d808                VoltageBatt
 .text          0x9d00d880      0x2a0 /Applications/microchip/mplabc32/v2.00/bin/../lib/gcc/pic32mx/4.5.1/../../../../pic32mx/lib/libm.a(fpsqrt32.o)
                0x9d00d880                fpexsqrt
                0x9d00d978                __mchp_sqrtf
                0x9d00d978                fpsqrt

.dinit          0x9d00db20      0x29c
 .dinit         0x9d00db20      0x29c data_init

.text           0x9d00ddbc      0x288
 .text          0x9d00ddbc      0x288 build/default/production/_ext/1472/Timer-PWM-Gruppio.o
                0x9d00ddbc                InitTimerAType

.text.scale     0x9d00e044      0x260
 .text.scale    0x9d00e044      0x260 /Applications/microchip/mplabc32/v2.00/bin/../lib/gcc/pic32mx/4.5.1/../../../../pic32mx/lib/libc.a(doprnt_fF.eo)

.text.__floatdisf
                0x9d00e2a4      0x214
 .text.__floatdisf
                0x9d00e2a4      0x214 /Applications/microchip/mplabc32/v2.00/bin/../lib/gcc/pic32mx/4.5.1/../../../../pic32mx/lib/libe.a(_floatdisf.o)
                0x9d00e2a4                __floatdisf

.text           0x9d00e4b8      0x350
 .text          0x9d00e4b8      0x1e8 build/default/production/_ext/1472/HMC6352.o
                0x9d00e4b8                InitMag
                0x9d00e588                ReadHeading
                0x9d00e5e8                EnterCalibrationMode
                0x9d00e644                ExitCalibrationMode
 .text          0x9d00e6a0      0x168 /Applications/microchip/mplabc32/v2.00/bin/../lib/gcc/pic32mx/4.5.1/../../../../pic32mx/lib/libc.a(strlen.o)
                0x9d00e6a0                strlen

.text.fputc     0x9d00e808      0x164
 .text.fputc    0x9d00e808      0x164 /Applications/microchip/mplabc32/v2.00/bin/../lib/gcc/pic32mx/4.5.1/../../../../pic32mx/lib/libc.a(_fputc_simple.o)
                0x9d00e808                fputc

.rodata         0x9d00e96c      0x140
 .rodata        0x9d00e96c      0x140 build/default/production/_ext/1472/Pic32mx7.o

.text._flsbuf   0x9d00eaac      0x12c
 .text._flsbuf  0x9d00eaac      0x12c /Applications/microchip/mplabc32/v2.00/bin/../lib/gcc/pic32mx/4.5.1/../../../../pic32mx/lib/libc.a(_flsbuf_simple.o)
                0x9d00eaac                _flsbuf

.rodata         0x9d00ebd8      0x124
 .rodata        0x9d00ebd8      0x124 build/default/production/_ext/1472/App.o

.text           0x9d00ecfc      0x1b8
 .text          0x9d00ecfc       0xe4 build/default/production/_ext/1472/Adc-Gruppio.o
                0x9d00ecfc                initADC
                0x9d00ed68                readADC
 .text          0x9d00ede0       0xd4 /Applications/microchip/mplabc32/v2.00/bin/../lib/gcc/pic32mx/4.5.1/libgcc.a(_floatundisf.o)
                0x9d00ede0                __floatundisf

.text.general_exception
                0x9d00eeb4       0xd0
 .text.general_exception
                0x9d00eeb4       0xd0 /Applications/microchip/mplabc32/v2.00/bin/../lib/gcc/pic32mx/4.5.1/../../../../pic32mx/lib/libc.a(general-exception.o)
                0x9d00eeb4                _general_exception_context

.text._mon_putc
                0x9d00ef84       0xa8
 .text._mon_putc
                0x9d00ef84       0xa8 /Applications/microchip/mplabc32/v2.00/bin/../lib/gcc/pic32mx/4.5.1/../../../../pic32mx/lib/libc.a(_mon_putc.o)
                0x9d00ef84                _mon_putc

.text.write     0x9d00f02c       0x88
 .text.write    0x9d00f02c       0x88 /Applications/microchip/mplabc32/v2.00/bin/../lib/gcc/pic32mx/4.5.1/../../../../pic32mx/lib/libc.a(write.o)
                0x9d00f02c                write

.text.asinf     0x9d00f0b4       0x78
 .text.asinf    0x9d00f0b4       0x78 /Applications/microchip/mplabc32/v2.00/bin/../lib/gcc/pic32mx/4.5.1/../../../../pic32mx/lib/libm.a(w_asinf.o)
                0x9d00f0b4                asinf

.text._sprintf_fF
                0x9d00f12c       0x68
 .text._sprintf_fF
                0x9d00f12c       0x68 /Applications/microchip/mplabc32/v2.00/bin/../lib/gcc/pic32mx/4.5.1/../../../../pic32mx/lib/libc.a(sprintf_fF.eo)
                0x9d00f12c                _sprintf_fF

.text.INTEnable
                0x9d00f194       0x58
 .text.INTEnable
                0x9d00f194       0x58 /Applications/microchip/mplabc32/v2.00/bin/../lib/gcc/pic32mx/4.5.1/../../../../pic32mx/lib/libmchp_peripheral_32MX795F512L.a(int_tbl_lib.o)
                0x9d00f194                INTEnable

.text.sqrtf     0x9d00f1ec       0x4c
 .text.sqrtf    0x9d00f1ec       0x4c /Applications/microchip/mplabc32/v2.00/bin/../lib/gcc/pic32mx/4.5.1/../../../../pic32mx/lib/libm.a(w_sqrtf.o)
                0x9d00f1ec                sqrtf

.text.I2CAcknowledgeByte
                0x9d00f238       0x4c
 .text.I2CAcknowledgeByte
                0x9d00f238       0x4c /Applications/microchip/mplabc32/v2.00/bin/../lib/gcc/pic32mx/4.5.1/../../../../pic32mx/lib/libmchp_peripheral_32MX795F512L.a(I2CAcknowledgeByte.o)
                0x9d00f238                I2CAcknowledgeByte

.text           0x9d00f284       0x4c
 .text          0x9d00f284       0x4c /Applications/microchip/mplabc32/v2.00/bin/../lib/gcc/pic32mx/4.5.1/libgcc.a(floatunsisf.o)
                0x9d00f284                __floatunsisf

.text.INTSetVectorPriority
                0x9d00f2d0       0x3c
 .text.INTSetVectorPriority
                0x9d00f2d0       0x3c /Applications/microchip/mplabc32/v2.00/bin/../lib/gcc/pic32mx/4.5.1/../../../../pic32mx/lib/libmchp_peripheral_32MX795F512L.a(int_tbl_lib.o)
                0x9d00f2d0                INTSetVectorPriority

.text.INTSetVectorSubPriority
                0x9d00f30c       0x3c
 .text.INTSetVectorSubPriority
                0x9d00f30c       0x3c /Applications/microchip/mplabc32/v2.00/bin/../lib/gcc/pic32mx/4.5.1/../../../../pic32mx/lib/libmchp_peripheral_32MX795F512L.a(int_tbl_lib.o)
                0x9d00f30c                INTSetVectorSubPriority

.rodata         0x9d00f348       0x38
 .rodata        0x9d00f348       0x38 build/default/production/_ext/1472/Grapichs.o

.text.I2CReceiverEnable
                0x9d00f380       0x38
 .text.I2CReceiverEnable
                0x9d00f380       0x38 /Applications/microchip/mplabc32/v2.00/bin/../lib/gcc/pic32mx/4.5.1/../../../../pic32mx/lib/libmchp_peripheral_32MX795F512L.a(I2CReceiverEnable.o)
                0x9d00f380                I2CReceiverEnable

.text.INTEnableSystemMultiVectoredInt
                0x9d00f3b8       0x34
 .text.INTEnableSystemMultiVectoredInt
                0x9d00f3b8       0x34 /Applications/microchip/mplabc32/v2.00/bin/../lib/gcc/pic32mx/4.5.1/../../../../pic32mx/lib/libmchp_peripheral_32MX795F512L.a(int_enable_mv_int_lib.o)
                0x9d00f3b8                INTEnableSystemMultiVectoredInt

.text.I2CSendByte
                0x9d00f3ec       0x34
 .text.I2CSendByte
                0x9d00f3ec       0x34 /Applications/microchip/mplabc32/v2.00/bin/../lib/gcc/pic32mx/4.5.1/../../../../pic32mx/lib/libmchp_peripheral_32MX795F512L.a(I2CSendByte.o)
                0x9d00f3ec                I2CSendByte

.text.I2CStart  0x9d00f420       0x34
 .text.I2CStart
                0x9d00f420       0x34 /Applications/microchip/mplabc32/v2.00/bin/../lib/gcc/pic32mx/4.5.1/../../../../pic32mx/lib/libmchp_peripheral_32MX795F512L.a(I2CStart.o)
                0x9d00f420                I2CStart

.text.INTConfigureSystem
                0x9d00f454       0x30
 .text.INTConfigureSystem
                0x9d00f454       0x30 /Applications/microchip/mplabc32/v2.00/bin/../lib/gcc/pic32mx/4.5.1/../../../../pic32mx/lib/libmchp_peripheral_32MX795F512L.a(int_configure_system_lib.o)
                0x9d00f454                INTConfigureSystem

.text.INTGetVectorPriority
                0x9d00f484       0x30
 .text.INTGetVectorPriority
                0x9d00f484       0x30 /Applications/microchip/mplabc32/v2.00/bin/../lib/gcc/pic32mx/4.5.1/../../../../pic32mx/lib/libmchp_peripheral_32MX795F512L.a(int_tbl_lib.o)
                0x9d00f484                INTGetVectorPriority

.text.INTGetVectorSubPriority
                0x9d00f4b4       0x30
 .text.INTGetVectorSubPriority
                0x9d00f4b4       0x30 /Applications/microchip/mplabc32/v2.00/bin/../lib/gcc/pic32mx/4.5.1/../../../../pic32mx/lib/libmchp_peripheral_32MX795F512L.a(int_tbl_lib.o)
                0x9d00f4b4                INTGetVectorSubPriority

.text.I2CRepeatStart
                0x9d00f4e4       0x30
 .text.I2CRepeatStart
                0x9d00f4e4       0x30 /Applications/microchip/mplabc32/v2.00/bin/../lib/gcc/pic32mx/4.5.1/../../../../pic32mx/lib/libmchp_peripheral_32MX795F512L.a(I2CRepeatStart.o)
                0x9d00f4e4                I2CRepeatStart

.rodata         0x9d00f514       0x2c
 .rodata        0x9d00f514       0x2c /Applications/microchip/mplabc32/v2.00/bin/../lib/gcc/pic32mx/4.5.1/../../../../pic32mx/lib/libc.a(doprnt_fF.eo)

.text.INTClearFlag
                0x9d00f540       0x2c
 .text.INTClearFlag
                0x9d00f540       0x2c /Applications/microchip/mplabc32/v2.00/bin/../lib/gcc/pic32mx/4.5.1/../../../../pic32mx/lib/libmchp_peripheral_32MX795F512L.a(int_tbl_lib.o)
                0x9d00f540                INTClearFlag

.text.INTSetFlag
                0x9d00f56c       0x2c
 .text.INTSetFlag
                0x9d00f56c       0x2c /Applications/microchip/mplabc32/v2.00/bin/../lib/gcc/pic32mx/4.5.1/../../../../pic32mx/lib/libmchp_peripheral_32MX795F512L.a(int_tbl_lib.o)
                0x9d00f56c                INTSetFlag

.text.INTGetFlag
                0x9d00f598       0x2c
 .text.INTGetFlag
                0x9d00f598       0x2c /Applications/microchip/mplabc32/v2.00/bin/../lib/gcc/pic32mx/4.5.1/../../../../pic32mx/lib/libmchp_peripheral_32MX795F512L.a(int_tbl_lib.o)
                0x9d00f598                INTGetFlag

.text.INTGetEnable
                0x9d00f5c4       0x2c
 .text.INTGetEnable
                0x9d00f5c4       0x2c /Applications/microchip/mplabc32/v2.00/bin/../lib/gcc/pic32mx/4.5.1/../../../../pic32mx/lib/libmchp_peripheral_32MX795F512L.a(int_tbl_lib.o)
                0x9d00f5c4                INTGetEnable

.rodata         0x9d00f5f0       0x24
 .rodata        0x9d00f5f0       0x24 build/default/production/_ext/1472/Adxl345.o

.text.tolower   0x9d00f614       0x24
 .text.tolower  0x9d00f614       0x24 /Applications/microchip/mplabc32/v2.00/bin/../lib/gcc/pic32mx/4.5.1/../../../../pic32mx/lib/libc.a(ctypef.o)
                0x9d00f614                tolower

.text.toupper   0x9d00f638       0x24
 .text.toupper  0x9d00f638       0x24 /Applications/microchip/mplabc32/v2.00/bin/../lib/gcc/pic32mx/4.5.1/../../../../pic32mx/lib/libc.a(ctypef.o)
                0x9d00f638                toupper

.text.I2CByteWasAcknowledged
                0x9d00f65c       0x24
 .text.I2CByteWasAcknowledged
                0x9d00f65c       0x24 /Applications/microchip/mplabc32/v2.00/bin/../lib/gcc/pic32mx/4.5.1/../../../../pic32mx/lib/libmchp_peripheral_32MX795F512L.a(I2CByteWasAcknowledged.o)
                0x9d00f65c                I2CByteWasAcknowledged

.text.I2CStop   0x9d00f680       0x24
 .text.I2CStop  0x9d00f680       0x24 /Applications/microchip/mplabc32/v2.00/bin/../lib/gcc/pic32mx/4.5.1/../../../../pic32mx/lib/libmchp_peripheral_32MX795F512L.a(I2CStop.o)
                0x9d00f680                I2CStop

.text.I2CTransmissionHasCompleted
                0x9d00f6a4       0x24
 .text.I2CTransmissionHasCompleted
                0x9d00f6a4       0x24 /Applications/microchip/mplabc32/v2.00/bin/../lib/gcc/pic32mx/4.5.1/../../../../pic32mx/lib/libmchp_peripheral_32MX795F512L.a(I2CTransmissionHasCompleted.o)
                0x9d00f6a4                I2CTransmissionHasCompleted

.text.I2CGetByte
                0x9d00f6c8       0x20
 .text.I2CGetByte
                0x9d00f6c8       0x20 /Applications/microchip/mplabc32/v2.00/bin/../lib/gcc/pic32mx/4.5.1/../../../../pic32mx/lib/libmchp_peripheral_32MX795F512L.a(I2CGetByte.o)
                0x9d00f6c8                I2CGetByte

.text.isalnum   0x9d00f6e8       0x18
 .text.isalnum  0x9d00f6e8       0x18 /Applications/microchip/mplabc32/v2.00/bin/../lib/gcc/pic32mx/4.5.1/../../../../pic32mx/lib/libc.a(ctypef.o)
                0x9d00f6e8                isalnum

.text.isalpha   0x9d00f700       0x18
 .text.isalpha  0x9d00f700       0x18 /Applications/microchip/mplabc32/v2.00/bin/../lib/gcc/pic32mx/4.5.1/../../../../pic32mx/lib/libc.a(ctypef.o)
                0x9d00f700                isalpha

.text.iscntrl   0x9d00f718       0x18
 .text.iscntrl  0x9d00f718       0x18 /Applications/microchip/mplabc32/v2.00/bin/../lib/gcc/pic32mx/4.5.1/../../../../pic32mx/lib/libc.a(ctypef.o)
                0x9d00f718                iscntrl

.text.isdigit   0x9d00f730       0x18
 .text.isdigit  0x9d00f730       0x18 /Applications/microchip/mplabc32/v2.00/bin/../lib/gcc/pic32mx/4.5.1/../../../../pic32mx/lib/libc.a(ctypef.o)
                0x9d00f730                isdigit

.text.isgraph   0x9d00f748       0x18
 .text.isgraph  0x9d00f748       0x18 /Applications/microchip/mplabc32/v2.00/bin/../lib/gcc/pic32mx/4.5.1/../../../../pic32mx/lib/libc.a(ctypef.o)
                0x9d00f748                isgraph

.text.islower   0x9d00f760       0x18
 .text.islower  0x9d00f760       0x18 /Applications/microchip/mplabc32/v2.00/bin/../lib/gcc/pic32mx/4.5.1/../../../../pic32mx/lib/libc.a(ctypef.o)
                0x9d00f760                islower

.text.isprint   0x9d00f778       0x18
 .text.isprint  0x9d00f778       0x18 /Applications/microchip/mplabc32/v2.00/bin/../lib/gcc/pic32mx/4.5.1/../../../../pic32mx/lib/libc.a(ctypef.o)
                0x9d00f778                isprint

.text.ispunct   0x9d00f790       0x18
 .text.ispunct  0x9d00f790       0x18 /Applications/microchip/mplabc32/v2.00/bin/../lib/gcc/pic32mx/4.5.1/../../../../pic32mx/lib/libc.a(ctypef.o)
                0x9d00f790                ispunct

.text.isspace   0x9d00f7a8       0x18
 .text.isspace  0x9d00f7a8       0x18 /Applications/microchip/mplabc32/v2.00/bin/../lib/gcc/pic32mx/4.5.1/../../../../pic32mx/lib/libc.a(ctypef.o)
                0x9d00f7a8                isspace

.text.isupper   0x9d00f7c0       0x18
 .text.isupper  0x9d00f7c0       0x18 /Applications/microchip/mplabc32/v2.00/bin/../lib/gcc/pic32mx/4.5.1/../../../../pic32mx/lib/libc.a(ctypef.o)
                0x9d00f7c0                isupper

.text.isxdigit  0x9d00f7d8       0x18
 .text.isxdigit
                0x9d00f7d8       0x18 /Applications/microchip/mplabc32/v2.00/bin/../lib/gcc/pic32mx/4.5.1/../../../../pic32mx/lib/libc.a(ctypef.o)
                0x9d00f7d8                isxdigit

.text           0x9d00f7f0       0x28
 .text          0x9d00f7f0       0x18 /Applications/microchip/mplabc32/v2.00/bin/../lib/gcc/pic32mx/4.5.1/../../../../pic32mx/lib/libc.a(default-nmi-handler.o)
                0x9d00f7f0                _nmi_handler
 .text          0x9d00f808       0x10 /Applications/microchip/mplabc32/v2.00/bin/../lib/gcc/pic32mx/4.5.1/../../../../pic32mx/lib/crt0.o
                0x9d00f810                __crt0_exit

.rodata         0x9d00f818       0x10
 .rodata        0x9d00f818       0x10 build/default/production/_ext/1472/ITG3200.o

.text._general_exception_handler
                0x9d00f828        0xc
 .text._general_exception_handler
                0x9d00f828        0xc /Applications/microchip/mplabc32/v2.00/bin/../lib/gcc/pic32mx/4.5.1/../../../../pic32mx/lib/libc.a(default-general-exception-handler.o)
                0x9d00f828                _general_exception_handler

.text._bootstrap_exception_handler
                0x9d00f834        0xc
 .text._bootstrap_exception_handler
                0x9d00f834        0xc /Applications/microchip/mplabc32/v2.00/bin/../lib/gcc/pic32mx/4.5.1/../../../../pic32mx/lib/libc.a(default-bootstrap-exception-handler.o)
                0x9d00f834                _bootstrap_exception_handler

.rodata         0x9d00f840        0x8
 .rodata        0x9d00f840        0x8 build/default/production/_ext/1472/IGruppioV2.o

.text.isascii   0x9d00f848        0x8
 .text.isascii  0x9d00f848        0x8 /Applications/microchip/mplabc32/v2.00/bin/../lib/gcc/pic32mx/4.5.1/../../../../pic32mx/lib/libc.a(ctypef.o)
                0x9d00f848                isascii

.text.toascii   0x9d00f850        0x8
 .text.toascii  0x9d00f850        0x8 /Applications/microchip/mplabc32/v2.00/bin/../lib/gcc/pic32mx/4.5.1/../../../../pic32mx/lib/libc.a(ctypef.o)
                0x9d00f850                toascii

.text._tolower  0x9d00f858        0x8
 .text._tolower
                0x9d00f858        0x8 /Applications/microchip/mplabc32/v2.00/bin/../lib/gcc/pic32mx/4.5.1/../../../../pic32mx/lib/libc.a(ctypef.o)
                0x9d00f858                _tolower

.text._toupper  0x9d00f860        0x8
 .text._toupper
                0x9d00f860        0x8 /Applications/microchip/mplabc32/v2.00/bin/../lib/gcc/pic32mx/4.5.1/../../../../pic32mx/lib/libc.a(ctypef.o)
                0x9d00f860                _toupper

.text._on_reset
                0x9d00f868        0x8
 .text._on_reset
                0x9d00f868        0x8 /Applications/microchip/mplabc32/v2.00/bin/../lib/gcc/pic32mx/4.5.1/../../../../pic32mx/lib/libc.a(default-on-reset.o)
                0x9d00f868                _on_reset

.text._on_bootstrap
                0x9d00f870        0x8
 .text._on_bootstrap
                0x9d00f870        0x8 /Applications/microchip/mplabc32/v2.00/bin/../lib/gcc/pic32mx/4.5.1/../../../../pic32mx/lib/libc.a(default-on-bootstrap.o)
                0x9d00f870                _on_bootstrap

.rodata         0x9d00f878        0x8
 .rodata        0x9d00f878        0x8 /Applications/microchip/mplabc32/v2.00/bin/../lib/gcc/pic32mx/4.5.1/../../../../pic32mx/lib/libe.a(_floatdisf.o)

.text.INTEnableInterrupts
                0x9d00f880        0x8
 .text.INTEnableInterrupts
                0x9d00f880        0x8 /Applications/microchip/mplabc32/v2.00/bin/../lib/gcc/pic32mx/4.5.1/../../../../pic32mx/lib/libmchp_peripheral_32MX795F512L.a(int_enable_interrupts_lib.o)
                0x9d00f880                INTEnableInterrupts

.rodata         0x9d00f888        0xc
 .rodata        0x9d00f888        0x8 /Applications/microchip/mplabc32/v2.00/bin/../lib/gcc/pic32mx/4.5.1/libgcc.a(_floatundisf.o)
 .rodata        0x9d00f890        0x4 /Applications/microchip/mplabc32/v2.00/bin/../lib/gcc/pic32mx/4.5.1/../../../../pic32mx/lib/libm.a(w_asinf.o)

.text%z176      0x00000000        0x0
 .text          0x00000000        0x0 /Applications/microchip/mplabc32/v2.00/bin/../lib/gcc/pic32mx/4.5.1/../../../../pic32mx/lib/./proc/32MX795F512L/processor.o

.text%z177      0x00000000        0x0
 .text          0x00000000        0x0 /Applications/microchip/mplabc32/v2.00/bin/../lib/gcc/pic32mx/4.5.1/../../../../pic32mx/lib/libc.a(errno.o)

.text%z178      0x00000000        0x0
 .text          0x00000000        0x0 /Applications/microchip/mplabc32/v2.00/bin/../lib/gcc/pic32mx/4.5.1/../../../../pic32mx/lib/libmchp_peripheral_32MX795F512L.a(I2CPrivate.o)

.text%z179      0x00000000        0x0
 .text          0x00000000        0x0 /Applications/microchip/mplabc32/v2.00/bin/../lib/gcc/pic32mx/4.5.1/../../../../pic32mx/lib/libmchp_peripheral_32MX795F512L.a(I2CTransmissionHasCompleted.o)

.text%z180      0x00000000        0x0
 .text          0x00000000        0x0 /Applications/microchip/mplabc32/v2.00/bin/../lib/gcc/pic32mx/4.5.1/../../../../pic32mx/lib/libmchp_peripheral_32MX795F512L.a(I2CStop.o)

.text%z181      0x00000000        0x0
 .text          0x00000000        0x0 /Applications/microchip/mplabc32/v2.00/bin/../lib/gcc/pic32mx/4.5.1/../../../../pic32mx/lib/libmchp_peripheral_32MX795F512L.a(I2CStart.o)

.text%z182      0x00000000        0x0
 .text          0x00000000        0x0 /Applications/microchip/mplabc32/v2.00/bin/../lib/gcc/pic32mx/4.5.1/../../../../pic32mx/lib/libmchp_peripheral_32MX795F512L.a(I2CSendByte.o)

.text%z183      0x00000000        0x0
 .text          0x00000000        0x0 /Applications/microchip/mplabc32/v2.00/bin/../lib/gcc/pic32mx/4.5.1/../../../../pic32mx/lib/libmchp_peripheral_32MX795F512L.a(I2CRepeatStart.o)

.text%z184      0x00000000        0x0
 .text          0x00000000        0x0 /Applications/microchip/mplabc32/v2.00/bin/../lib/gcc/pic32mx/4.5.1/../../../../pic32mx/lib/libmchp_peripheral_32MX795F512L.a(I2CReceiverEnable.o)

.text%z185      0x00000000        0x0
 .text          0x00000000        0x0 /Applications/microchip/mplabc32/v2.00/bin/../lib/gcc/pic32mx/4.5.1/../../../../pic32mx/lib/libmchp_peripheral_32MX795F512L.a(I2CGetByte.o)

.text%z186      0x00000000        0x0
 .text          0x00000000        0x0 /Applications/microchip/mplabc32/v2.00/bin/../lib/gcc/pic32mx/4.5.1/../../../../pic32mx/lib/libmchp_peripheral_32MX795F512L.a(I2CByteWasAcknowledged.o)

.text%z187      0x00000000        0x0
 .text          0x00000000        0x0 /Applications/microchip/mplabc32/v2.00/bin/../lib/gcc/pic32mx/4.5.1/../../../../pic32mx/lib/libmchp_peripheral_32MX795F512L.a(I2CAcknowledgeByte.o)

.text%z188      0x00000000        0x0
 .text          0x00000000        0x0 /Applications/microchip/mplabc32/v2.00/bin/../lib/gcc/pic32mx/4.5.1/../../../../pic32mx/lib/libmchp_peripheral_32MX795F512L.a(int_tbl_lib.o)

.text%z189      0x00000000        0x0
 .text          0x00000000        0x0 /Applications/microchip/mplabc32/v2.00/bin/../lib/gcc/pic32mx/4.5.1/../../../../pic32mx/lib/libmchp_peripheral_32MX795F512L.a(int_enable_mv_int_lib.o)

.text%z190      0x00000000        0x0
 .text          0x00000000        0x0 /Applications/microchip/mplabc32/v2.00/bin/../lib/gcc/pic32mx/4.5.1/../../../../pic32mx/lib/libmchp_peripheral_32MX795F512L.a(int_enable_interrupts_lib.o)

.text%z191      0x00000000        0x0
 .text          0x00000000        0x0 /Applications/microchip/mplabc32/v2.00/bin/../lib/gcc/pic32mx/4.5.1/../../../../pic32mx/lib/libmchp_peripheral_32MX795F512L.a(int_configure_system_lib.o)

.text%z192      0x00000000        0x0
 .text          0x00000000        0x0 /Applications/microchip/mplabc32/v2.00/bin/../lib/gcc/pic32mx/4.5.1/../../../../pic32mx/lib/libe.a(_floatdisf.o)

.text%z193      0x00000000        0x0
 .text          0x00000000        0x0 /Applications/microchip/mplabc32/v2.00/bin/../lib/gcc/pic32mx/4.5.1/../../../../pic32mx/lib/libm.a(s_lib_ver.o)

.text%z194      0x00000000        0x0
 .text          0x00000000        0x0 /Applications/microchip/mplabc32/v2.00/bin/../lib/gcc/pic32mx/4.5.1/../../../../pic32mx/lib/libm.a(w_sqrtf.o)

.text%z195      0x00000000        0x0
 .text          0x00000000        0x0 /Applications/microchip/mplabc32/v2.00/bin/../lib/gcc/pic32mx/4.5.1/../../../../pic32mx/lib/libm.a(w_asinf.o)

.text%z196      0x00000000        0x0
 .text          0x00000000        0x0 /Applications/microchip/mplabc32/v2.00/bin/../lib/gcc/pic32mx/4.5.1/../../../../pic32mx/lib/libc.a(c32_uart.o)

.text%z197      0x00000000        0x0
 .text          0x00000000        0x0 /Applications/microchip/mplabc32/v2.00/bin/../lib/gcc/pic32mx/4.5.1/../../../../pic32mx/lib/libc.a(_mon_putc.o)

.text%z198      0x00000000        0x0
 .text          0x00000000        0x0 /Applications/microchip/mplabc32/v2.00/bin/../lib/gcc/pic32mx/4.5.1/../../../../pic32mx/lib/libc.a(_flsbuf_simple.o)

.text%z199      0x00000000        0x0
 .text          0x00000000        0x0 /Applications/microchip/mplabc32/v2.00/bin/../lib/gcc/pic32mx/4.5.1/../../../../pic32mx/lib/libc.a(_iob.o)

.text%z200      0x00000000        0x0
 .text          0x00000000        0x0 /Applications/microchip/mplabc32/v2.00/bin/../lib/gcc/pic32mx/4.5.1/../../../../pic32mx/lib/libc.a(write.o)

.text%z201      0x00000000        0x0
 .text          0x00000000        0x0 /Applications/microchip/mplabc32/v2.00/bin/../lib/gcc/pic32mx/4.5.1/../../../../pic32mx/lib/libc.a(powers.o)

.text%z202      0x00000000        0x0
 .text          0x00000000        0x0 /Applications/microchip/mplabc32/v2.00/bin/../lib/gcc/pic32mx/4.5.1/../../../../pic32mx/lib/libc.a(_fputc_simple.o)

.text%z203      0x00000000        0x0
 .text          0x00000000        0x0 /Applications/microchip/mplabc32/v2.00/bin/../lib/gcc/pic32mx/4.5.1/../../../../pic32mx/lib/libc.a(doprnt_fF.eo)

.text%z204      0x00000000        0x0
 .text          0x00000000        0x0 /Applications/microchip/mplabc32/v2.00/bin/../lib/gcc/pic32mx/4.5.1/../../../../pic32mx/lib/libc.a(ctype.o)

.text%z205      0x00000000        0x0
 .text          0x00000000        0x0 /Applications/microchip/mplabc32/v2.00/bin/../lib/gcc/pic32mx/4.5.1/../../../../pic32mx/lib/libc.a(default-on-bootstrap.o)

.text%z206      0x00000000        0x0
 .text          0x00000000        0x0 /Applications/microchip/mplabc32/v2.00/bin/../lib/gcc/pic32mx/4.5.1/../../../../pic32mx/lib/libc.a(default-on-reset.o)

.text%z207      0x00000000        0x0
 .text          0x00000000        0x0 /Applications/microchip/mplabc32/v2.00/bin/../lib/gcc/pic32mx/4.5.1/../../../../pic32mx/lib/libc.a(default-bootstrap-exception-handler.o)

.text%z208      0x00000000        0x0
 .text          0x00000000        0x0 /Applications/microchip/mplabc32/v2.00/bin/../lib/gcc/pic32mx/4.5.1/../../../../pic32mx/lib/libc.a(default-general-exception-handler.o)

.text%z209      0x00000000        0x0
 .text          0x00000000        0x0 /Applications/microchip/mplabc32/v2.00/bin/../lib/gcc/pic32mx/4.5.1/../../../../pic32mx/lib/libc.a(sprintf_fF.eo)

.text%z210      0x00000000        0x0
 .text          0x00000000        0x0 /Applications/microchip/mplabc32/v2.00/bin/../lib/gcc/pic32mx/4.5.1/../../../../pic32mx/lib/libc.a(ctypef.o)

.text%z211      0x00000000        0x0
 .text          0x00000000        0x0 /Applications/microchip/mplabc32/v2.00/bin/../lib/gcc/pic32mx/4.5.1/../../../../pic32mx/lib/libc.a(general-exception.o)

.text%z212      0x00000000        0x0
 .text          0x00000000        0x0 build/default/production/_ext/1472/Filter.o
